ARM GAS  C:\Users\maths\AppData\Local\Temp\ccSLYfPG.s 			page 1


   1              		.syntax unified
   2              		.cpu cortex-m3
   3              		.fpu softvfp
   4              		.eabi_attribute 20, 1
   5              		.eabi_attribute 21, 1
   6              		.eabi_attribute 23, 3
   7              		.eabi_attribute 24, 1
   8              		.eabi_attribute 25, 1
   9              		.eabi_attribute 26, 1
  10              		.eabi_attribute 30, 1
  11              		.eabi_attribute 34, 1
  12              		.eabi_attribute 18, 4
  13              		.thumb
  14              		.syntax unified
  15              		.file	"main.c"
  16              		.text
  17              	.Ltext0:
  18              		.cfi_sections	.debug_frame
  19              		.section	.text.main,"ax",%progbits
  20              		.align	2
  21              		.global	main
  22              		.thumb
  23              		.thumb_func
  24              		.type	main, %function
  25              	main:
  26              	.LFB63:
  27              		.file 1 "main.c"
   1:main.c        **** /* ========================================
   2:main.c        ****  *
   3:main.c        ****  * Copyright Mathias Segoufin, Year 2020
   4:main.c        ****  * All Rights Reserved
   5:main.c        ****  * UNPUBLISHED, LICENSED SOFTWARE.
   6:main.c        ****  *
   7:main.c        ****  * CONFIDENTIAL AND PROPRIETARY INFORMATION
   8:main.c        ****  * WHICH IS THE PROPERTY OF your company.
   9:main.c        ****  *
  10:main.c        ****  * ========================================
  11:main.c        **** */
  12:main.c        **** #include "project.h"
  13:main.c        **** #include <stdbool.h>
  14:main.c        **** #include <unistd.h>
  15:main.c        **** 
  16:main.c        **** // Prototype for interrupt-handler.
  17:main.c        **** CY_ISR_PROTO(ISR_UART_rx_handler);
  18:main.c        **** 
  19:main.c        **** bool LEDstatus = false;
  20:main.c        **** char c;
  21:main.c        **** int ASCIIvalue = 0;
  22:main.c        **** 
  23:main.c        **** //Funktioner til styring
  24:main.c        **** void LEDon();
  25:main.c        **** void LEDoff();
  26:main.c        **** 
  27:main.c        **** int main(void)
  28:main.c        **** {
  28              		.loc 1 28 0
  29              		.cfi_startproc
ARM GAS  C:\Users\maths\AppData\Local\Temp\ccSLYfPG.s 			page 2


  30              		@ Volatile: function does not return.
  31              		@ args = 0, pretend = 0, frame = 0
  32              		@ frame_needed = 0, uses_anonymous_args = 0
  33 0000 08B5     		push	{r3, lr}
  34              		.cfi_def_cfa_offset 8
  35              		.cfi_offset 3, -8
  36              		.cfi_offset 14, -4
  29:main.c        ****     CyGlobalIntEnable; /* Enable global interrupts. */
  37              		.loc 1 29 0
  38              		.syntax unified
  39              	@ 29 "main.c" 1
  40 0002 62B6     		CPSIE   i
  41              	@ 0 "" 2
  30:main.c        ****     
  31:main.c        ****     //Starter UART
  32:main.c        ****     UART_1_Start();
  42              		.loc 1 32 0
  43              		.thumb
  44              		.syntax unified
  45 0004 FFF7FEFF 		bl	UART_1_Start
  46              	.LVL0:
  33:main.c        ****     
  34:main.c        ****     UART_1_PutString("PSoC UART Receiver program has started. \r\n");
  47              		.loc 1 34 0
  48 0008 0E48     		ldr	r0, .L6
  49 000a FFF7FEFF 		bl	UART_1_PutString
  50              	.LVL1:
  35:main.c        ****     UART_1_PutString("Sending a 1 from the RPi will activate the LED and sending a 0 will deactivat
  51              		.loc 1 35 0
  52 000e 0E48     		ldr	r0, .L6+4
  53 0010 FFF7FEFF 		bl	UART_1_PutString
  54              	.LVL2:
  36:main.c        ****     
  37:main.c        ****     //Starter Interrupt
  38:main.c        ****     isr_1_StartEx(ISR_UART_rx_handler);
  55              		.loc 1 38 0
  56 0014 0D48     		ldr	r0, .L6+8
  57 0016 FFF7FEFF 		bl	isr_1_StartEx
  58              	.LVL3:
  59              	.L2:
  39:main.c        **** 
  40:main.c        ****     for(;;)
  41:main.c        ****     {
  42:main.c        ****         if(LEDstatus == true)        //Toggler en LED på PSoC. Kan laves om til en funktion som ek
  60              		.loc 1 42 0
  61 001a 0D4B     		ldr	r3, .L6+12
  62 001c 1B78     		ldrb	r3, [r3]	@ zero_extendqisi2
  63 001e 1BB1     		cbz	r3, .L3
  43:main.c        ****         {
  44:main.c        ****             Pin_LED_Write(1);
  64              		.loc 1 44 0
  65 0020 0120     		movs	r0, #1
  66 0022 FFF7FEFF 		bl	Pin_LED_Write
  67              	.LVL4:
  68 0026 F8E7     		b	.L2
  69              	.L3:
  45:main.c        ****             //while(!objektsamletop) //Pseudokode til at sende besked tilbage til RPI og videre til
ARM GAS  C:\Users\maths\AppData\Local\Temp\ccSLYfPG.s 			page 3


  46:main.c        ****             //{                      //Pseudokode til at sende besked tilbage til RPI og videre til
  47:main.c        ****             //  //do nothing         //Pseudokode til at sende besked tilbage til RPI og videre til
  48:main.c        ****             //}                      //Pseudokode til at sende besked tilbage til RPI og videre til
  49:main.c        ****             //UART_1_PutChar("l");   //Sender "l" til RPI for "løftet".
  50:main.c        ****         }
  51:main.c        ****         else if(LEDstatus == false) //Toggler en LED på PSoC. Kan laves om til en funktion som eks
  70              		.loc 1 51 0
  71 0028 002B     		cmp	r3, #0
  72 002a F6D1     		bne	.L2
  52:main.c        ****         {
  53:main.c        ****             if(Pin_LED_Read() == 1)
  73              		.loc 1 53 0
  74 002c FFF7FEFF 		bl	Pin_LED_Read
  75              	.LVL5:
  76 0030 0128     		cmp	r0, #1
  77 0032 F2D1     		bne	.L2
  54:main.c        ****             {
  55:main.c        ****                 Pin_LED_Write(~Pin_LED_Read());
  78              		.loc 1 55 0
  79 0034 FFF7FEFF 		bl	Pin_LED_Read
  80              	.LVL6:
  81 0038 C043     		mvns	r0, r0
  82 003a C0B2     		uxtb	r0, r0
  83 003c FFF7FEFF 		bl	Pin_LED_Write
  84              	.LVL7:
  85 0040 EBE7     		b	.L2
  86              	.L7:
  87 0042 00BF     		.align	2
  88              	.L6:
  89 0044 00000000 		.word	.LC0
  90 0048 2C000000 		.word	.LC1
  91 004c 00000000 		.word	ISR_UART_rx_handler
  92 0050 00000000 		.word	.LANCHOR0
  93              		.cfi_endproc
  94              	.LFE63:
  95              		.size	main, .-main
  96              		.section	.text.LEDon,"ax",%progbits
  97              		.align	2
  98              		.global	LEDon
  99              		.thumb
 100              		.thumb_func
 101              		.type	LEDon, %function
 102              	LEDon:
 103              	.LFB65:
  56:main.c        ****                 //while(!sænket)        //Pseudokode til at sende besked tilbage til RPI og videre
  57:main.c        ****                 //{                     //Pseudokode til at sende besked tilbage til RPI og videre 
  58:main.c        ****                 //  //do nothing        //Pseudokode til at sende besked tilbage til RPI og videre 
  59:main.c        ****                 //}                     //Pseudokode til at sende besked tilbage til RPI og videre 
  60:main.c        ****                 //UART_1_PutChar("s");  //Sender "s" til RPI for "sænket".
  61:main.c        ****             }
  62:main.c        ****         }
  63:main.c        ****     }
  64:main.c        **** }
  65:main.c        **** 
  66:main.c        **** //UART Interrupt Handler, der styres via inputs. Efter modtagelse ekkoer den tilbage til konsol og 
  67:main.c        **** CY_ISR(ISR_UART_rx_handler)
  68:main.c        **** {
ARM GAS  C:\Users\maths\AppData\Local\Temp\ccSLYfPG.s 			page 4


  69:main.c        ****     uint8_t bytesToRead = UART_1_GetRxBufferSize();
  70:main.c        ****     for (uint8_t i = 0; i < bytesToRead; i++)
  71:main.c        ****     {
  72:main.c        ****         c = UART_1_GetChar();
  73:main.c        **** 
  74:main.c        ****         
  75:main.c        ****         UART_1_PutString("PSoC received: ");
  76:main.c        ****         UART_1_PutChar(c);
  77:main.c        ****         UART_1_PutString(" from PuTTY terminal on PC");
  78:main.c        ****         UART_1_PutString("\r\n");
  79:main.c        **** 
  80:main.c        ****         
  81:main.c        ****         //Switch-Case som gennemgår kommunikationsprotokollen:
  82:main.c        ****         switch (c)
  83:main.c        ****         {
  84:main.c        ****             case '0' :     
  85:main.c        ****             {
  86:main.c        ****                 LEDoff();    //LED slukkes som signal på at bilen stoppes.
  87:main.c        ****                 UART_1_PutString("Stop\r\n");
  88:main.c        ****             }
  89:main.c        ****             break;
  90:main.c        ****             case '1' :      
  91:main.c        ****             {
  92:main.c        ****                 UART_1_PutString("Driving forward\r\n");
  93:main.c        ****                 if(LEDstatus == false)
  94:main.c        ****                 {
  95:main.c        ****                     LEDon();
  96:main.c        ****                 }else if(LEDstatus == true)
  97:main.c        ****                 {
  98:main.c        ****                     LEDoff();
  99:main.c        ****                 }
 100:main.c        **** 
 101:main.c        ****             }
 102:main.c        ****             break;
 103:main.c        ****             case '2' :      
 104:main.c        ****             {
 105:main.c        ****                 UART_1_PutString("Driving backwards\r\n");
 106:main.c        ****                 if(LEDstatus == false)
 107:main.c        ****                 {
 108:main.c        ****                     LEDon();
 109:main.c        ****                 }else if(LEDstatus == true)
 110:main.c        ****                 {
 111:main.c        ****                     LEDoff();
 112:main.c        ****                 }
 113:main.c        ****             }
 114:main.c        ****             break;
 115:main.c        ****             case '3' :     
 116:main.c        ****             {
 117:main.c        ****                 UART_1_PutString("Turning left\r\n");
 118:main.c        ****                 if(LEDstatus == false)
 119:main.c        ****                 {
 120:main.c        ****                     LEDon();
 121:main.c        ****                 }else if(LEDstatus == true)
 122:main.c        ****                 {
 123:main.c        ****                     LEDoff();
 124:main.c        ****                 }
 125:main.c        ****             }
ARM GAS  C:\Users\maths\AppData\Local\Temp\ccSLYfPG.s 			page 5


 126:main.c        ****             break;
 127:main.c        ****             case '4' :      
 128:main.c        ****             {
 129:main.c        ****                 UART_1_PutString("Turning right\r\n");
 130:main.c        ****                 if(LEDstatus == false)
 131:main.c        ****                 {
 132:main.c        ****                     LEDon();
 133:main.c        ****                 }else if(LEDstatus == true)
 134:main.c        ****                 {
 135:main.c        ****                     LEDoff();
 136:main.c        ****                 }
 137:main.c        ****             }
 138:main.c        ****             break;
 139:main.c        ****             case '8' :      
 140:main.c        ****             {
 141:main.c        ****                 UART_1_PutString("Lifting arm\r\n");
 142:main.c        ****                 if(LEDstatus == false)
 143:main.c        ****                 {
 144:main.c        ****                     LEDon();
 145:main.c        ****                 }else if(LEDstatus == true)
 146:main.c        ****                 {
 147:main.c        ****                     LEDoff();
 148:main.c        ****                 }                
 149:main.c        ****             }
 150:main.c        ****             break;
 151:main.c        ****             case '9' :      
 152:main.c        ****             {
 153:main.c        ****                 UART_1_PutString("Lowering arm\r\n");
 154:main.c        ****                 if(LEDstatus == false)
 155:main.c        ****                 {
 156:main.c        ****                     LEDon();
 157:main.c        ****                 }else if(LEDstatus == true)
 158:main.c        ****                 {
 159:main.c        ****                     LEDoff();
 160:main.c        ****                 }                
 161:main.c        ****             }
 162:main.c        ****             break; 
 163:main.c        ****             
 164:main.c        ****             default :
 165:main.c        ****             break;
 166:main.c        ****         }
 167:main.c        ****     }
 168:main.c        **** }
 169:main.c        **** 
 170:main.c        **** void LEDon()    //Toggler en LED på PSoC. Kan laves om til en funktion som eksempelvis løfter et 
 171:main.c        **** {
 104              		.loc 1 171 0
 105              		.cfi_startproc
 106              		@ args = 0, pretend = 0, frame = 0
 107              		@ frame_needed = 0, uses_anonymous_args = 0
 108              		@ link register save eliminated.
 172:main.c        ****     LEDstatus = true;
 109              		.loc 1 172 0
 110 0000 0122     		movs	r2, #1
 111 0002 014B     		ldr	r3, .L9
 112 0004 1A70     		strb	r2, [r3]
 113 0006 7047     		bx	lr
ARM GAS  C:\Users\maths\AppData\Local\Temp\ccSLYfPG.s 			page 6


 114              	.L10:
 115              		.align	2
 116              	.L9:
 117 0008 00000000 		.word	.LANCHOR0
 118              		.cfi_endproc
 119              	.LFE65:
 120              		.size	LEDon, .-LEDon
 121              		.section	.text.LEDoff,"ax",%progbits
 122              		.align	2
 123              		.global	LEDoff
 124              		.thumb
 125              		.thumb_func
 126              		.type	LEDoff, %function
 127              	LEDoff:
 128              	.LFB66:
 173:main.c        **** }
 174:main.c        **** 
 175:main.c        **** void LEDoff()   //Toggler en LED på PSoC. Kan laves om til en funktion som eksempelvis sænker et 
 176:main.c        **** {
 129              		.loc 1 176 0
 130              		.cfi_startproc
 131              		@ args = 0, pretend = 0, frame = 0
 132              		@ frame_needed = 0, uses_anonymous_args = 0
 133              		@ link register save eliminated.
 177:main.c        ****     LEDstatus = false;
 134              		.loc 1 177 0
 135 0000 0022     		movs	r2, #0
 136 0002 014B     		ldr	r3, .L12
 137 0004 1A70     		strb	r2, [r3]
 138 0006 7047     		bx	lr
 139              	.L13:
 140              		.align	2
 141              	.L12:
 142 0008 00000000 		.word	.LANCHOR0
 143              		.cfi_endproc
 144              	.LFE66:
 145              		.size	LEDoff, .-LEDoff
 146              		.section	.text.ISR_UART_rx_handler,"ax",%progbits
 147              		.align	2
 148              		.global	ISR_UART_rx_handler
 149              		.thumb
 150              		.thumb_func
 151              		.type	ISR_UART_rx_handler, %function
 152              	ISR_UART_rx_handler:
 153              	.LFB64:
  68:main.c        ****     uint8_t bytesToRead = UART_1_GetRxBufferSize();
 154              		.loc 1 68 0
 155              		.cfi_startproc
 156              		@ args = 0, pretend = 0, frame = 0
 157              		@ frame_needed = 0, uses_anonymous_args = 0
 158 0000 70B5     		push	{r4, r5, r6, lr}
 159              		.cfi_def_cfa_offset 16
 160              		.cfi_offset 4, -16
 161              		.cfi_offset 5, -12
 162              		.cfi_offset 6, -8
 163              		.cfi_offset 14, -4
  69:main.c        ****     for (uint8_t i = 0; i < bytesToRead; i++)
ARM GAS  C:\Users\maths\AppData\Local\Temp\ccSLYfPG.s 			page 7


 164              		.loc 1 69 0
 165 0002 FFF7FEFF 		bl	UART_1_GetRxBufferSize
 166              	.LVL8:
 167 0006 0646     		mov	r6, r0
 168              	.LVL9:
 169              	.LBB2:
  70:main.c        ****     {
 170              		.loc 1 70 0
 171 0008 0024     		movs	r4, #0
 172 000a 71E0     		b	.L15
 173              	.LVL10:
 174              	.L31:
  72:main.c        **** 
 175              		.loc 1 72 0
 176 000c FFF7FEFF 		bl	UART_1_GetChar
 177              	.LVL11:
 178 0010 394D     		ldr	r5, .L33
 179 0012 2870     		strb	r0, [r5]
  75:main.c        ****         UART_1_PutChar(c);
 180              		.loc 1 75 0
 181 0014 3948     		ldr	r0, .L33+4
 182 0016 FFF7FEFF 		bl	UART_1_PutString
 183              	.LVL12:
  76:main.c        ****         UART_1_PutString(" from PuTTY terminal on PC");
 184              		.loc 1 76 0
 185 001a 2878     		ldrb	r0, [r5]	@ zero_extendqisi2
 186 001c FFF7FEFF 		bl	UART_1_PutChar
 187              	.LVL13:
  77:main.c        ****         UART_1_PutString("\r\n");
 188              		.loc 1 77 0
 189 0020 3748     		ldr	r0, .L33+8
 190 0022 FFF7FEFF 		bl	UART_1_PutString
 191              	.LVL14:
  78:main.c        **** 
 192              		.loc 1 78 0
 193 0026 3748     		ldr	r0, .L33+12
 194 0028 FFF7FEFF 		bl	UART_1_PutString
 195              	.LVL15:
  82:main.c        ****         {
 196              		.loc 1 82 0
 197 002c 2B78     		ldrb	r3, [r5]	@ zero_extendqisi2
 198 002e 303B     		subs	r3, r3, #48
 199 0030 092B     		cmp	r3, #9
 200 0032 5BD8     		bhi	.L16
 201 0034 DFE803F0 		tbb	[pc, r3]
 202              	.L18:
 203 0038 05       		.byte	(.L17-.L18)/2
 204 0039 0B       		.byte	(.L19-.L18)/2
 205 003a 19       		.byte	(.L20-.L18)/2
 206 003b 27       		.byte	(.L21-.L18)/2
 207 003c 34       		.byte	(.L22-.L18)/2
 208 003d 5A       		.byte	(.L16-.L18)/2
 209 003e 5A       		.byte	(.L16-.L18)/2
 210 003f 5A       		.byte	(.L16-.L18)/2
 211 0040 41       		.byte	(.L23-.L18)/2
 212 0041 4E       		.byte	(.L24-.L18)/2
 213              		.p2align 1
ARM GAS  C:\Users\maths\AppData\Local\Temp\ccSLYfPG.s 			page 8


 214              	.L17:
  86:main.c        ****                 UART_1_PutString("Stop\r\n");
 215              		.loc 1 86 0
 216 0042 FFF7FEFF 		bl	LEDoff
 217              	.LVL16:
  87:main.c        ****             }
 218              		.loc 1 87 0
 219 0046 3048     		ldr	r0, .L33+16
 220 0048 FFF7FEFF 		bl	UART_1_PutString
 221              	.LVL17:
  89:main.c        ****             case '1' :      
 222              		.loc 1 89 0
 223 004c 4EE0     		b	.L16
 224              	.L19:
  92:main.c        ****                 if(LEDstatus == false)
 225              		.loc 1 92 0
 226 004e 2F48     		ldr	r0, .L33+20
 227 0050 FFF7FEFF 		bl	UART_1_PutString
 228              	.LVL18:
  93:main.c        ****                 {
 229              		.loc 1 93 0
 230 0054 2E4B     		ldr	r3, .L33+24
 231 0056 1B78     		ldrb	r3, [r3]	@ zero_extendqisi2
 232 0058 13B9     		cbnz	r3, .L25
  95:main.c        ****                 }else if(LEDstatus == true)
 233              		.loc 1 95 0
 234 005a FFF7FEFF 		bl	LEDon
 235              	.LVL19:
 236 005e 45E0     		b	.L16
 237              	.L25:
  96:main.c        ****                 {
 238              		.loc 1 96 0
 239 0060 002B     		cmp	r3, #0
 240 0062 43D0     		beq	.L16
  98:main.c        ****                 }
 241              		.loc 1 98 0
 242 0064 FFF7FEFF 		bl	LEDoff
 243              	.LVL20:
 244 0068 40E0     		b	.L16
 245              	.L20:
 105:main.c        ****                 if(LEDstatus == false)
 246              		.loc 1 105 0
 247 006a 2A48     		ldr	r0, .L33+28
 248 006c FFF7FEFF 		bl	UART_1_PutString
 249              	.LVL21:
 106:main.c        ****                 {
 250              		.loc 1 106 0
 251 0070 274B     		ldr	r3, .L33+24
 252 0072 1B78     		ldrb	r3, [r3]	@ zero_extendqisi2
 253 0074 13B9     		cbnz	r3, .L26
 108:main.c        ****                 }else if(LEDstatus == true)
 254              		.loc 1 108 0
 255 0076 FFF7FEFF 		bl	LEDon
 256              	.LVL22:
 257 007a 37E0     		b	.L16
 258              	.L26:
 109:main.c        ****                 {
ARM GAS  C:\Users\maths\AppData\Local\Temp\ccSLYfPG.s 			page 9


 259              		.loc 1 109 0
 260 007c 002B     		cmp	r3, #0
 261 007e 35D0     		beq	.L16
 111:main.c        ****                 }
 262              		.loc 1 111 0
 263 0080 FFF7FEFF 		bl	LEDoff
 264              	.LVL23:
 265 0084 32E0     		b	.L16
 266              	.L21:
 117:main.c        ****                 if(LEDstatus == false)
 267              		.loc 1 117 0
 268 0086 2448     		ldr	r0, .L33+32
 269 0088 FFF7FEFF 		bl	UART_1_PutString
 270              	.LVL24:
 118:main.c        ****                 {
 271              		.loc 1 118 0
 272 008c 204B     		ldr	r3, .L33+24
 273 008e 1B78     		ldrb	r3, [r3]	@ zero_extendqisi2
 274 0090 13B9     		cbnz	r3, .L27
 120:main.c        ****                 }else if(LEDstatus == true)
 275              		.loc 1 120 0
 276 0092 FFF7FEFF 		bl	LEDon
 277              	.LVL25:
 278 0096 29E0     		b	.L16
 279              	.L27:
 121:main.c        ****                 {
 280              		.loc 1 121 0
 281 0098 43B3     		cbz	r3, .L16
 123:main.c        ****                 }
 282              		.loc 1 123 0
 283 009a FFF7FEFF 		bl	LEDoff
 284              	.LVL26:
 285 009e 25E0     		b	.L16
 286              	.L22:
 129:main.c        ****                 if(LEDstatus == false)
 287              		.loc 1 129 0
 288 00a0 1E48     		ldr	r0, .L33+36
 289 00a2 FFF7FEFF 		bl	UART_1_PutString
 290              	.LVL27:
 130:main.c        ****                 {
 291              		.loc 1 130 0
 292 00a6 1A4B     		ldr	r3, .L33+24
 293 00a8 1B78     		ldrb	r3, [r3]	@ zero_extendqisi2
 294 00aa 13B9     		cbnz	r3, .L28
 132:main.c        ****                 }else if(LEDstatus == true)
 295              		.loc 1 132 0
 296 00ac FFF7FEFF 		bl	LEDon
 297              	.LVL28:
 298 00b0 1CE0     		b	.L16
 299              	.L28:
 133:main.c        ****                 {
 300              		.loc 1 133 0
 301 00b2 DBB1     		cbz	r3, .L16
 135:main.c        ****                 }
 302              		.loc 1 135 0
 303 00b4 FFF7FEFF 		bl	LEDoff
 304              	.LVL29:
ARM GAS  C:\Users\maths\AppData\Local\Temp\ccSLYfPG.s 			page 10


 305 00b8 18E0     		b	.L16
 306              	.L23:
 141:main.c        ****                 if(LEDstatus == false)
 307              		.loc 1 141 0
 308 00ba 1948     		ldr	r0, .L33+40
 309 00bc FFF7FEFF 		bl	UART_1_PutString
 310              	.LVL30:
 142:main.c        ****                 {
 311              		.loc 1 142 0
 312 00c0 134B     		ldr	r3, .L33+24
 313 00c2 1B78     		ldrb	r3, [r3]	@ zero_extendqisi2
 314 00c4 13B9     		cbnz	r3, .L29
 144:main.c        ****                 }else if(LEDstatus == true)
 315              		.loc 1 144 0
 316 00c6 FFF7FEFF 		bl	LEDon
 317              	.LVL31:
 318 00ca 0FE0     		b	.L16
 319              	.L29:
 145:main.c        ****                 {
 320              		.loc 1 145 0
 321 00cc 73B1     		cbz	r3, .L16
 147:main.c        ****                 }                
 322              		.loc 1 147 0
 323 00ce FFF7FEFF 		bl	LEDoff
 324              	.LVL32:
 325 00d2 0BE0     		b	.L16
 326              	.L24:
 153:main.c        ****                 if(LEDstatus == false)
 327              		.loc 1 153 0
 328 00d4 1348     		ldr	r0, .L33+44
 329 00d6 FFF7FEFF 		bl	UART_1_PutString
 330              	.LVL33:
 154:main.c        ****                 {
 331              		.loc 1 154 0
 332 00da 0D4B     		ldr	r3, .L33+24
 333 00dc 1B78     		ldrb	r3, [r3]	@ zero_extendqisi2
 334 00de 13B9     		cbnz	r3, .L30
 156:main.c        ****                 }else if(LEDstatus == true)
 335              		.loc 1 156 0
 336 00e0 FFF7FEFF 		bl	LEDon
 337              	.LVL34:
 338 00e4 02E0     		b	.L16
 339              	.L30:
 157:main.c        ****                 {
 340              		.loc 1 157 0
 341 00e6 0BB1     		cbz	r3, .L16
 159:main.c        ****                 }                
 342              		.loc 1 159 0
 343 00e8 FFF7FEFF 		bl	LEDoff
 344              	.LVL35:
 345              	.L16:
  70:main.c        ****     {
 346              		.loc 1 70 0 discriminator 2
 347 00ec 0134     		adds	r4, r4, #1
 348              	.LVL36:
 349 00ee E4B2     		uxtb	r4, r4
 350              	.LVL37:
ARM GAS  C:\Users\maths\AppData\Local\Temp\ccSLYfPG.s 			page 11


 351              	.L15:
  70:main.c        ****     {
 352              		.loc 1 70 0 is_stmt 0 discriminator 1
 353 00f0 B442     		cmp	r4, r6
 354 00f2 8BD3     		bcc	.L31
 355              	.LBE2:
 168:main.c        **** 
 356              		.loc 1 168 0 is_stmt 1
 357 00f4 70BD     		pop	{r4, r5, r6, pc}
 358              	.LVL38:
 359              	.L34:
 360 00f6 00BF     		.align	2
 361              	.L33:
 362 00f8 00000000 		.word	c
 363 00fc 88000000 		.word	.LC2
 364 0100 98000000 		.word	.LC3
 365 0104 B4000000 		.word	.LC4
 366 0108 B8000000 		.word	.LC5
 367 010c C0000000 		.word	.LC6
 368 0110 00000000 		.word	.LANCHOR0
 369 0114 D4000000 		.word	.LC7
 370 0118 E8000000 		.word	.LC8
 371 011c F8000000 		.word	.LC9
 372 0120 08010000 		.word	.LC10
 373 0124 18010000 		.word	.LC11
 374              		.cfi_endproc
 375              	.LFE64:
 376              		.size	ISR_UART_rx_handler, .-ISR_UART_rx_handler
 377              		.global	ASCIIvalue
 378              		.comm	c,1,1
 379              		.global	LEDstatus
 380              		.section	.rodata.str1.4,"aMS",%progbits,1
 381              		.align	2
 382              	.LC0:
 383 0000 50536F43 		.ascii	"PSoC UART Receiver program has started. \015\012\000"
 383      20554152 
 383      54205265 
 383      63656976 
 383      65722070 
 384 002b 00       		.space	1
 385              	.LC1:
 386 002c 53656E64 		.ascii	"Sending a 1 from the RPi will activate the LED and "
 386      696E6720 
 386      61203120 
 386      66726F6D 
 386      20746865 
 387 005f 73656E64 		.ascii	"sending a 0 will deactivate the LED. \015\012\000"
 387      696E6720 
 387      61203020 
 387      77696C6C 
 387      20646561 
 388 0087 00       		.space	1
 389              	.LC2:
 390 0088 50536F43 		.ascii	"PSoC received: \000"
 390      20726563 
 390      65697665 
 390      643A2000 
ARM GAS  C:\Users\maths\AppData\Local\Temp\ccSLYfPG.s 			page 12


 391              	.LC3:
 392 0098 2066726F 		.ascii	" from PuTTY terminal on PC\000"
 392      6D205075 
 392      54545920 
 392      7465726D 
 392      696E616C 
 393 00b3 00       		.space	1
 394              	.LC4:
 395 00b4 0D0A00   		.ascii	"\015\012\000"
 396 00b7 00       		.space	1
 397              	.LC5:
 398 00b8 53746F70 		.ascii	"Stop\015\012\000"
 398      0D0A00
 399 00bf 00       		.space	1
 400              	.LC6:
 401 00c0 44726976 		.ascii	"Driving forward\015\012\000"
 401      696E6720 
 401      666F7277 
 401      6172640D 
 401      0A00
 402 00d2 0000     		.space	2
 403              	.LC7:
 404 00d4 44726976 		.ascii	"Driving backwards\015\012\000"
 404      696E6720 
 404      6261636B 
 404      77617264 
 404      730D0A00 
 405              	.LC8:
 406 00e8 5475726E 		.ascii	"Turning left\015\012\000"
 406      696E6720 
 406      6C656674 
 406      0D0A00
 407 00f7 00       		.space	1
 408              	.LC9:
 409 00f8 5475726E 		.ascii	"Turning right\015\012\000"
 409      696E6720 
 409      72696768 
 409      740D0A00 
 410              	.LC10:
 411 0108 4C696674 		.ascii	"Lifting arm\015\012\000"
 411      696E6720 
 411      61726D0D 
 411      0A00
 412 0116 0000     		.space	2
 413              	.LC11:
 414 0118 4C6F7765 		.ascii	"Lowering arm\015\012\000"
 414      72696E67 
 414      2061726D 
 414      0D0A00
 415              		.bss
 416              		.align	2
 417              		.set	.LANCHOR0,. + 0
 418              		.type	LEDstatus, %object
 419              		.size	LEDstatus, 1
 420              	LEDstatus:
 421 0000 00       		.space	1
 422 0001 000000   		.space	3
ARM GAS  C:\Users\maths\AppData\Local\Temp\ccSLYfPG.s 			page 13


 423              		.type	ASCIIvalue, %object
 424              		.size	ASCIIvalue, 4
 425              	ASCIIvalue:
 426 0004 00000000 		.space	4
 427              		.text
 428              	.Letext0:
 429              		.file 2 "c:\\program files (x86)\\cypress\\psoc creator\\4.2\\psoc creator\\import\\gnu\\arm\\5.4.
 430              		.file 3 "c:\\program files (x86)\\cypress\\psoc creator\\4.2\\psoc creator\\import\\gnu\\arm\\5.4.
 431              		.file 4 "Generated_Source\\PSoC5/core_cm3.h"
 432              		.file 5 "Generated_Source\\PSoC5/UART_1.h"
 433              		.file 6 "Generated_Source\\PSoC5/isr_1.h"
 434              		.file 7 "Generated_Source\\PSoC5/Pin_LED.h"