ARM GAS  C:\Users\Jesper\AppData\Local\Temp\ccFuwpPm.s 			page 1


   1              		.syntax unified
   2              		.cpu cortex-m3
   3              		.fpu softvfp
   4              		.eabi_attribute 20, 1
   5              		.eabi_attribute 21, 1
   6              		.eabi_attribute 23, 3
   7              		.eabi_attribute 24, 1
   8              		.eabi_attribute 25, 1
   9              		.eabi_attribute 26, 1
  10              		.eabi_attribute 30, 1
  11              		.eabi_attribute 34, 1
  12              		.eabi_attribute 18, 4
  13              		.thumb
  14              		.syntax unified
  15              		.file	"main.c"
  16              		.text
  17              	.Ltext0:
  18              		.cfi_sections	.debug_frame
  19              		.global	__aeabi_i2f
  20              		.global	__aeabi_fdiv
  21              		.section	.text.main,"ax",%progbits
  22              		.align	2
  23              		.global	main
  24              		.thumb
  25              		.thumb_func
  26              		.type	main, %function
  27              	main:
  28              	.LFB64:
  29              		.file 1 "main.c"
   1:main.c        **** /* ========================================
   2:main.c        ****  *
   3:main.c        ****  * Copyright YOUR COMPANY, THE YEAR
   4:main.c        ****  * All Rights Reserved
   5:main.c        ****  * UNPUBLISHED, LICENSED SOFTWARE.
   6:main.c        ****  *
   7:main.c        ****  * CONFIDENTIAL AND PROPRIETARY INFORMATION
   8:main.c        ****  * WHICH IS THE PROPERTY OF your company.
   9:main.c        ****  *
  10:main.c        ****  * ========================================
  11:main.c        **** */
  12:main.c        **** #include <stdio.h>
  13:main.c        **** #include <stdlib.h>
  14:main.c        **** #include "project.h"
  15:main.c        **** #include "MotorDrive.h"
  16:main.c        **** #include "ServoArm.h"
  17:main.c        **** #include "Sensor.h"
  18:main.c        **** 
  19:main.c        **** CY_ISR_PROTO(ISR_UART_rx_handler);
  20:main.c        **** void handleByteReceived(uint8_t byteReceived);
  21:main.c        ****  
  22:main.c        **** 
  23:main.c        ****     int control_2   = 78;
  24:main.c        ****     int control_3   = 32;
  25:main.c        ****     int control_4   = 30;
  26:main.c        ****     int control_6   = 60;
  27:main.c        ****      
  28:main.c        ****     //Sensor
ARM GAS  C:\Users\Jesper\AppData\Local\Temp\ccFuwpPm.s 			page 2


  29:main.c        ****     int counter = 0;
  30:main.c        ****     float distance = 0.0;
  31:main.c        ****    
  32:main.c        **** 
  33:main.c        **** 
  34:main.c        **** int main(void)
  35:main.c        **** {
  30              		.loc 1 35 0
  31              		.cfi_startproc
  32              		@ Volatile: function does not return.
  33              		@ args = 0, pretend = 0, frame = 0
  34              		@ frame_needed = 0, uses_anonymous_args = 0
  35 0000 08B5     		push	{r3, lr}
  36              		.cfi_def_cfa_offset 8
  37              		.cfi_offset 3, -8
  38              		.cfi_offset 14, -4
  36:main.c        ****     CyGlobalIntEnable; /* Enable global interrupts. */
  39              		.loc 1 36 0
  40              		.syntax unified
  41              	@ 36 "main.c" 1
  42 0002 62B6     		CPSIE   i
  43              	@ 0 "" 2
  37:main.c        **** 
  38:main.c        ****     /* Place your initialization/startup code here (e.g. MyInst_Start()) */
  39:main.c        ****     isr_uart_rx_StartEx(ISR_UART_rx_handler);
  44              		.loc 1 39 0
  45              		.thumb
  46              		.syntax unified
  47 0004 2F48     		ldr	r0, .L7
  48 0006 FFF7FEFF 		bl	isr_uart_rx_StartEx
  49              	.LVL0:
  40:main.c        ****     UART_1_Start();
  50              		.loc 1 40 0
  51 000a FFF7FEFF 		bl	UART_1_Start
  52              	.LVL1:
  41:main.c        ****     PWMA_Start();
  53              		.loc 1 41 0
  54 000e FFF7FEFF 		bl	PWMA_Start
  55              	.LVL2:
  42:main.c        ****     PWMB_Start();
  56              		.loc 1 42 0
  57 0012 FFF7FEFF 		bl	PWMB_Start
  58              	.LVL3:
  43:main.c        ****     stby_Write(0);
  59              		.loc 1 43 0
  60 0016 0020     		movs	r0, #0
  61 0018 FFF7FEFF 		bl	stby_Write
  62              	.LVL4:
  44:main.c        ****     
  45:main.c        ****     //Sensor
  46:main.c        ****     Timer_1_Start();
  63              		.loc 1 46 0
  64 001c FFF7FEFF 		bl	Timer_1_Start
  65              	.LVL5:
  47:main.c        ****     
  48:main.c        ****     UART_1_PutString("DC-Motor-PWM application started\r\n");
  66              		.loc 1 48 0
ARM GAS  C:\Users\Jesper\AppData\Local\Temp\ccFuwpPm.s 			page 3


  67 0020 2948     		ldr	r0, .L7+4
  68 0022 FFF7FEFF 		bl	UART_1_PutString
  69              	.LVL6:
  49:main.c        ****     UART_1_PutString("0: Stop\r\n");
  70              		.loc 1 49 0
  71 0026 2948     		ldr	r0, .L7+8
  72 0028 FFF7FEFF 		bl	UART_1_PutString
  73              	.LVL7:
  50:main.c        ****     UART_1_PutString("w: Drive forwards\r\n");
  74              		.loc 1 50 0
  75 002c 2848     		ldr	r0, .L7+12
  76 002e FFF7FEFF 		bl	UART_1_PutString
  77              	.LVL8:
  51:main.c        ****     UART_1_PutString("s: Drive backwards\r\n");
  78              		.loc 1 51 0
  79 0032 2848     		ldr	r0, .L7+16
  80 0034 FFF7FEFF 		bl	UART_1_PutString
  81              	.LVL9:
  52:main.c        ****     UART_1_PutString("a: Drive left\r\n");
  82              		.loc 1 52 0
  83 0038 2748     		ldr	r0, .L7+20
  84 003a FFF7FEFF 		bl	UART_1_PutString
  85              	.LVL10:
  53:main.c        ****     UART_1_PutString("s: Drive right\r\n");
  86              		.loc 1 53 0
  87 003e 2748     		ldr	r0, .L7+24
  88 0040 FFF7FEFF 		bl	UART_1_PutString
  89              	.LVL11:
  54:main.c        ****     UART_1_PutString("1: Increase speed\r\n");
  90              		.loc 1 54 0
  91 0044 2648     		ldr	r0, .L7+28
  92 0046 FFF7FEFF 		bl	UART_1_PutString
  93              	.LVL12:
  55:main.c        ****     UART_1_PutString("2: Decrease speed\r\n");
  94              		.loc 1 55 0
  95 004a 2648     		ldr	r0, .L7+32
  96 004c FFF7FEFF 		bl	UART_1_PutString
  97              	.LVL13:
  56:main.c        ****     
  57:main.c        ****     //Servo arm
  58:main.c        ****     PWM_2_Start();
  98              		.loc 1 58 0
  99 0050 FFF7FEFF 		bl	PWM_2_Start
 100              	.LVL14:
  59:main.c        ****     PWM_3_Start();
 101              		.loc 1 59 0
 102 0054 FFF7FEFF 		bl	PWM_3_Start
 103              	.LVL15:
  60:main.c        ****     PWM_4_Start();
 104              		.loc 1 60 0
 105 0058 FFF7FEFF 		bl	PWM_4_Start
 106              	.LVL16:
  61:main.c        ****     PWM_6_Start();
 107              		.loc 1 61 0
 108 005c FFF7FEFF 		bl	PWM_6_Start
 109              	.LVL17:
  62:main.c        ****    
ARM GAS  C:\Users\Jesper\AppData\Local\Temp\ccFuwpPm.s 			page 4


  63:main.c        ****     PWM_2_WriteCompare(control_2);
 110              		.loc 1 63 0
 111 0060 214C     		ldr	r4, .L7+36
 112 0062 2088     		ldrh	r0, [r4]
 113 0064 FFF7FEFF 		bl	PWM_2_WriteCompare
 114              	.LVL18:
  64:main.c        ****     PWM_3_WriteCompare(control_3);
 115              		.loc 1 64 0
 116 0068 A088     		ldrh	r0, [r4, #4]
 117 006a FFF7FEFF 		bl	PWM_3_WriteCompare
 118              	.LVL19:
  65:main.c        ****     PWM_4_WriteCompare(control_4);
 119              		.loc 1 65 0
 120 006e 2089     		ldrh	r0, [r4, #8]
 121 0070 FFF7FEFF 		bl	PWM_4_WriteCompare
 122              	.LVL20:
  66:main.c        ****     PWM_6_WriteCompare(control_6);
 123              		.loc 1 66 0
 124 0074 A089     		ldrh	r0, [r4, #12]
 125 0076 FFF7FEFF 		bl	PWM_6_WriteCompare
 126              	.LVL21:
 127 007a 0BE0     		b	.L2
 128              	.L3:
  67:main.c        ****     
  68:main.c        **** 
  69:main.c        ****     
  70:main.c        ****     for(;;)
  71:main.c        ****     {
  72:main.c        ****         while(Echo_Read()==0){
  73:main.c        ****        Control_Reg_1_Write(1);
 129              		.loc 1 73 0
 130 007c 0120     		movs	r0, #1
 131 007e FFF7FEFF 		bl	Control_Reg_1_Write
 132              	.LVL22:
  74:main.c        ****        CyDelayUs(10);
 133              		.loc 1 74 0
 134 0082 0A20     		movs	r0, #10
 135 0084 FFF7FEFF 		bl	CyDelayUs
 136              	.LVL23:
  75:main.c        ****        Control_Reg_1_Write(0);
 137              		.loc 1 75 0
 138 0088 0020     		movs	r0, #0
 139 008a FFF7FEFF 		bl	Control_Reg_1_Write
 140              	.LVL24:
  76:main.c        ****        CyDelay(1);     
 141              		.loc 1 76 0
 142 008e 0120     		movs	r0, #1
 143 0090 FFF7FEFF 		bl	CyDelay
 144              	.LVL25:
 145              	.L2:
  72:main.c        ****        Control_Reg_1_Write(1);
 146              		.loc 1 72 0
 147 0094 FFF7FEFF 		bl	Echo_Read
 148              	.LVL26:
 149 0098 0028     		cmp	r0, #0
 150 009a EFD0     		beq	.L3
 151              	.L4:
ARM GAS  C:\Users\Jesper\AppData\Local\Temp\ccFuwpPm.s 			page 5


  77:main.c        ****        }
  78:main.c        ****        while (Echo_Read()==1){}
 152              		.loc 1 78 0 discriminator 1
 153 009c FFF7FEFF 		bl	Echo_Read
 154              	.LVL27:
 155 00a0 0128     		cmp	r0, #1
 156 00a2 FBD0     		beq	.L4
  79:main.c        ****         
  80:main.c        ****       counter = 65535 - Timer_1_ReadCounter();
 157              		.loc 1 80 0
 158 00a4 FFF7FEFF 		bl	Timer_1_ReadCounter
 159              	.LVL28:
 160 00a8 C0F57F40 		rsb	r0, r0, #65280
 161 00ac FF30     		adds	r0, r0, #255
 162 00ae 0F4C     		ldr	r4, .L7+40
 163 00b0 2060     		str	r0, [r4]
  81:main.c        ****       distance= (float)counter/58.0;
 164              		.loc 1 81 0
 165 00b2 FFF7FEFF 		bl	__aeabi_i2f
 166              	.LVL29:
 167 00b6 0E49     		ldr	r1, .L7+44
 168 00b8 FFF7FEFF 		bl	__aeabi_fdiv
 169              	.LVL30:
 170 00bc 6060     		str	r0, [r4, #4]	@ float
  82:main.c        ****       writesToUART(distance);
 171              		.loc 1 82 0
 172 00be FFF7FEFF 		bl	writesToUART
 173              	.LVL31:
  83:main.c        ****     }
 174              		.loc 1 83 0
 175 00c2 E7E7     		b	.L2
 176              	.L8:
 177              		.align	2
 178              	.L7:
 179 00c4 00000000 		.word	ISR_UART_rx_handler
 180 00c8 00000000 		.word	.LC0
 181 00cc 24000000 		.word	.LC1
 182 00d0 30000000 		.word	.LC2
 183 00d4 44000000 		.word	.LC3
 184 00d8 5C000000 		.word	.LC4
 185 00dc 6C000000 		.word	.LC5
 186 00e0 80000000 		.word	.LC6
 187 00e4 94000000 		.word	.LC7
 188 00e8 00000000 		.word	.LANCHOR0
 189 00ec 00000000 		.word	.LANCHOR1
 190 00f0 00006842 		.word	1114112000
 191              		.cfi_endproc
 192              	.LFE64:
 193              		.size	main, .-main
 194              		.global	__aeabi_fcmple
 195              		.section	.text.handleByteReceived,"ax",%progbits
 196              		.align	2
 197              		.global	handleByteReceived
 198              		.thumb
 199              		.thumb_func
 200              		.type	handleByteReceived, %function
 201              	handleByteReceived:
ARM GAS  C:\Users\Jesper\AppData\Local\Temp\ccFuwpPm.s 			page 6


 202              	.LFB66:
  84:main.c        **** }
  85:main.c        **** 
  86:main.c        **** CY_ISR(ISR_UART_rx_handler)
  87:main.c        **** {
  88:main.c        ****     uint8_t bytesToRead = UART_1_GetRxBufferSize();
  89:main.c        ****     while (bytesToRead > 0)
  90:main.c        ****     {
  91:main.c        ****         uint8_t byteReceived = UART_1_ReadRxData();
  92:main.c        ****         UART_1_WriteTxData(byteReceived); // echo back
  93:main.c        ****         
  94:main.c        ****         handleByteReceived(byteReceived);
  95:main.c        ****         
  96:main.c        ****         bytesToRead--;
  97:main.c        ****     }
  98:main.c        **** }
  99:main.c        **** 
 100:main.c        **** void handleByteReceived(uint8_t byteReceived)
 101:main.c        **** {
 203              		.loc 1 101 0
 204              		.cfi_startproc
 205              		@ args = 0, pretend = 0, frame = 0
 206              		@ frame_needed = 0, uses_anonymous_args = 0
 207              	.LVL32:
 208 0000 08B5     		push	{r3, lr}
 209              		.cfi_def_cfa_offset 8
 210              		.cfi_offset 3, -8
 211              		.cfi_offset 14, -4
 102:main.c        ****     switch(byteReceived)
 212              		.loc 1 102 0
 213 0002 3038     		subs	r0, r0, #48
 214              	.LVL33:
 215 0004 4728     		cmp	r0, #71
 216 0006 45D8     		bhi	.L9
 217 0008 DFE800F0 		tbb	[pc, r0]
 218              	.L12:
 219 000c 42       		.byte	(.L11-.L12)/2
 220 000d 27       		.byte	(.L13-.L12)/2
 221 000e 24       		.byte	(.L14-.L12)/2
 222 000f 36       		.byte	(.L15-.L12)/2
 223 0010 3F       		.byte	(.L16-.L12)/2
 224 0011 44       		.byte	(.L9-.L12)/2
 225 0012 44       		.byte	(.L9-.L12)/2
 226 0013 44       		.byte	(.L9-.L12)/2
 227 0014 44       		.byte	(.L9-.L12)/2
 228 0015 44       		.byte	(.L9-.L12)/2
 229 0016 44       		.byte	(.L9-.L12)/2
 230 0017 44       		.byte	(.L9-.L12)/2
 231 0018 44       		.byte	(.L9-.L12)/2
 232 0019 44       		.byte	(.L9-.L12)/2
 233 001a 44       		.byte	(.L9-.L12)/2
 234 001b 44       		.byte	(.L9-.L12)/2
 235 001c 44       		.byte	(.L9-.L12)/2
 236 001d 44       		.byte	(.L9-.L12)/2
 237 001e 44       		.byte	(.L9-.L12)/2
 238 001f 44       		.byte	(.L9-.L12)/2
 239 0020 44       		.byte	(.L9-.L12)/2
ARM GAS  C:\Users\Jesper\AppData\Local\Temp\ccFuwpPm.s 			page 7


 240 0021 44       		.byte	(.L9-.L12)/2
 241 0022 44       		.byte	(.L9-.L12)/2
 242 0023 44       		.byte	(.L9-.L12)/2
 243 0024 44       		.byte	(.L9-.L12)/2
 244 0025 44       		.byte	(.L9-.L12)/2
 245 0026 44       		.byte	(.L9-.L12)/2
 246 0027 44       		.byte	(.L9-.L12)/2
 247 0028 44       		.byte	(.L9-.L12)/2
 248 0029 44       		.byte	(.L9-.L12)/2
 249 002a 44       		.byte	(.L9-.L12)/2
 250 002b 44       		.byte	(.L9-.L12)/2
 251 002c 44       		.byte	(.L9-.L12)/2
 252 002d 44       		.byte	(.L9-.L12)/2
 253 002e 44       		.byte	(.L9-.L12)/2
 254 002f 44       		.byte	(.L9-.L12)/2
 255 0030 44       		.byte	(.L9-.L12)/2
 256 0031 44       		.byte	(.L9-.L12)/2
 257 0032 44       		.byte	(.L9-.L12)/2
 258 0033 44       		.byte	(.L9-.L12)/2
 259 0034 44       		.byte	(.L9-.L12)/2
 260 0035 44       		.byte	(.L9-.L12)/2
 261 0036 44       		.byte	(.L9-.L12)/2
 262 0037 44       		.byte	(.L9-.L12)/2
 263 0038 44       		.byte	(.L9-.L12)/2
 264 0039 44       		.byte	(.L9-.L12)/2
 265 003a 44       		.byte	(.L9-.L12)/2
 266 003b 44       		.byte	(.L9-.L12)/2
 267 003c 44       		.byte	(.L9-.L12)/2
 268 003d 30       		.byte	(.L17-.L12)/2
 269 003e 44       		.byte	(.L9-.L12)/2
 270 003f 44       		.byte	(.L9-.L12)/2
 271 0040 33       		.byte	(.L18-.L12)/2
 272 0041 44       		.byte	(.L9-.L12)/2
 273 0042 44       		.byte	(.L9-.L12)/2
 274 0043 44       		.byte	(.L9-.L12)/2
 275 0044 44       		.byte	(.L9-.L12)/2
 276 0045 44       		.byte	(.L9-.L12)/2
 277 0046 44       		.byte	(.L9-.L12)/2
 278 0047 44       		.byte	(.L9-.L12)/2
 279 0048 44       		.byte	(.L9-.L12)/2
 280 0049 44       		.byte	(.L9-.L12)/2
 281 004a 44       		.byte	(.L9-.L12)/2
 282 004b 44       		.byte	(.L9-.L12)/2
 283 004c 44       		.byte	(.L9-.L12)/2
 284 004d 44       		.byte	(.L9-.L12)/2
 285 004e 44       		.byte	(.L9-.L12)/2
 286 004f 2D       		.byte	(.L19-.L12)/2
 287 0050 44       		.byte	(.L9-.L12)/2
 288 0051 44       		.byte	(.L9-.L12)/2
 289 0052 44       		.byte	(.L9-.L12)/2
 290 0053 2A       		.byte	(.L20-.L12)/2
 291              		.p2align 1
 292              	.L14:
 103:main.c        ****     {
 104:main.c        ****         case '2' :
 105:main.c        ****         {
 106:main.c        ****             decreaseSpeed();
ARM GAS  C:\Users\Jesper\AppData\Local\Temp\ccFuwpPm.s 			page 8


 293              		.loc 1 106 0
 294 0054 FFF7FEFF 		bl	decreaseSpeed
 295              	.LVL34:
 107:main.c        ****         }
 108:main.c        ****         break;
 296              		.loc 1 108 0
 297 0058 08BD     		pop	{r3, pc}
 298              	.L13:
 109:main.c        ****         case '1' :
 110:main.c        ****         {
 111:main.c        ****             increaseSpeed();
 299              		.loc 1 111 0
 300 005a FFF7FEFF 		bl	increaseSpeed
 301              	.LVL35:
 112:main.c        ****         }
 113:main.c        ****         break;
 302              		.loc 1 113 0
 303 005e 08BD     		pop	{r3, pc}
 304              	.L20:
 114:main.c        ****         case 'w' :
 115:main.c        ****         {
 116:main.c        ****             //writesToUART(distance);
 117:main.c        ****             driveForwards();
 305              		.loc 1 117 0
 306 0060 FFF7FEFF 		bl	driveForwards
 307              	.LVL36:
 118:main.c        ****         }
 119:main.c        ****         break;
 308              		.loc 1 119 0
 309 0064 08BD     		pop	{r3, pc}
 310              	.L19:
 120:main.c        ****         case 's' :
 121:main.c        ****         {
 122:main.c        ****             driveBackwards();
 311              		.loc 1 122 0
 312 0066 FFF7FEFF 		bl	driveBackwards
 313              	.LVL37:
 123:main.c        ****         }
 124:main.c        ****         break;
 314              		.loc 1 124 0
 315 006a 08BD     		pop	{r3, pc}
 316              	.L17:
 125:main.c        ****          case 'a' :
 126:main.c        ****         {
 127:main.c        ****             driveLeft();
 317              		.loc 1 127 0
 318 006c FFF7FEFF 		bl	driveLeft
 319              	.LVL38:
 128:main.c        ****         }
 129:main.c        ****         break;
 320              		.loc 1 129 0
 321 0070 08BD     		pop	{r3, pc}
 322              	.L18:
 130:main.c        ****          case 'd' :
 131:main.c        ****         {
 132:main.c        ****             driveRight();
 323              		.loc 1 132 0
ARM GAS  C:\Users\Jesper\AppData\Local\Temp\ccFuwpPm.s 			page 9


 324 0072 FFF7FEFF 		bl	driveRight
 325              	.LVL39:
 133:main.c        ****         }
 134:main.c        ****         break;
 326              		.loc 1 134 0
 327 0076 08BD     		pop	{r3, pc}
 328              	.L15:
 135:main.c        ****          case '3' :
 136:main.c        ****         {
 137:main.c        ****             if(distance <= 30)
 329              		.loc 1 137 0
 330 0078 0749     		ldr	r1, .L24
 331 007a 084B     		ldr	r3, .L24+4
 332 007c 5868     		ldr	r0, [r3, #4]	@ float
 333 007e FFF7FEFF 		bl	__aeabi_fcmple
 334              	.LVL40:
 335 0082 38B1     		cbz	r0, .L9
 138:main.c        ****             {
 139:main.c        ****                 LOFT();
 336              		.loc 1 139 0
 337 0084 FFF7FEFF 		bl	LOFT
 338              	.LVL41:
 339 0088 08BD     		pop	{r3, pc}
 340              	.L16:
 140:main.c        ****             }
 141:main.c        ****             
 142:main.c        ****             else{}
 143:main.c        ****         }
 144:main.c        ****         break;
 145:main.c        ****          case '4' :
 146:main.c        ****         {
 147:main.c        ****             SANK();
 341              		.loc 1 147 0
 342 008a FFF7FEFF 		bl	SANK
 343              	.LVL42:
 148:main.c        ****         }
 149:main.c        ****         break;
 344              		.loc 1 149 0
 345 008e 08BD     		pop	{r3, pc}
 346              	.L11:
 150:main.c        ****         case '0' :
 151:main.c        ****         {
 152:main.c        ****             stop();
 347              		.loc 1 152 0
 348 0090 FFF7FEFF 		bl	stop
 349              	.LVL43:
 350              	.L9:
 351 0094 08BD     		pop	{r3, pc}
 352              	.L25:
 353 0096 00BF     		.align	2
 354              	.L24:
 355 0098 0000F041 		.word	1106247680
 356 009c 00000000 		.word	.LANCHOR1
 357              		.cfi_endproc
 358              	.LFE66:
 359              		.size	handleByteReceived, .-handleByteReceived
 360              		.section	.text.ISR_UART_rx_handler,"ax",%progbits
ARM GAS  C:\Users\Jesper\AppData\Local\Temp\ccFuwpPm.s 			page 10


 361              		.align	2
 362              		.global	ISR_UART_rx_handler
 363              		.thumb
 364              		.thumb_func
 365              		.type	ISR_UART_rx_handler, %function
 366              	ISR_UART_rx_handler:
 367              	.LFB65:
  87:main.c        ****     uint8_t bytesToRead = UART_1_GetRxBufferSize();
 368              		.loc 1 87 0
 369              		.cfi_startproc
 370              		@ args = 0, pretend = 0, frame = 0
 371              		@ frame_needed = 0, uses_anonymous_args = 0
 372 0000 38B5     		push	{r3, r4, r5, lr}
 373              		.cfi_def_cfa_offset 16
 374              		.cfi_offset 3, -16
 375              		.cfi_offset 4, -12
 376              		.cfi_offset 5, -8
 377              		.cfi_offset 14, -4
  88:main.c        ****     while (bytesToRead > 0)
 378              		.loc 1 88 0
 379 0002 FFF7FEFF 		bl	UART_1_GetRxBufferSize
 380              	.LVL44:
 381 0006 0446     		mov	r4, r0
 382              	.LVL45:
  89:main.c        ****     {
 383              		.loc 1 89 0
 384 0008 09E0     		b	.L27
 385              	.L28:
 386              	.LBB2:
  91:main.c        ****         UART_1_WriteTxData(byteReceived); // echo back
 387              		.loc 1 91 0
 388 000a FFF7FEFF 		bl	UART_1_ReadRxData
 389              	.LVL46:
 390 000e 0546     		mov	r5, r0
 391              	.LVL47:
  92:main.c        ****         
 392              		.loc 1 92 0
 393 0010 FFF7FEFF 		bl	UART_1_WriteTxData
 394              	.LVL48:
  94:main.c        ****         
 395              		.loc 1 94 0
 396 0014 2846     		mov	r0, r5
 397 0016 FFF7FEFF 		bl	handleByteReceived
 398              	.LVL49:
  96:main.c        ****     }
 399              		.loc 1 96 0
 400 001a 013C     		subs	r4, r4, #1
 401              	.LVL50:
 402 001c E4B2     		uxtb	r4, r4
 403              	.LVL51:
 404              	.L27:
 405              	.LBE2:
  89:main.c        ****     {
 406              		.loc 1 89 0
 407 001e 002C     		cmp	r4, #0
 408 0020 F3D1     		bne	.L28
  98:main.c        **** 
ARM GAS  C:\Users\Jesper\AppData\Local\Temp\ccFuwpPm.s 			page 11


 409              		.loc 1 98 0
 410 0022 38BD     		pop	{r3, r4, r5, pc}
 411              		.cfi_endproc
 412              	.LFE65:
 413              		.size	ISR_UART_rx_handler, .-ISR_UART_rx_handler
 414              		.global	distance
 415              		.global	counter
 416              		.global	control_6
 417              		.global	control_4
 418              		.global	control_3
 419              		.global	control_2
 420              		.data
 421              		.align	2
 422              		.set	.LANCHOR0,. + 0
 423              		.type	control_2, %object
 424              		.size	control_2, 4
 425              	control_2:
 426 0000 4E000000 		.word	78
 427              		.type	control_3, %object
 428              		.size	control_3, 4
 429              	control_3:
 430 0004 20000000 		.word	32
 431              		.type	control_4, %object
 432              		.size	control_4, 4
 433              	control_4:
 434 0008 1E000000 		.word	30
 435              		.type	control_6, %object
 436              		.size	control_6, 4
 437              	control_6:
 438 000c 3C000000 		.word	60
 439              		.section	.rodata.str1.4,"aMS",%progbits,1
 440              		.align	2
 441              	.LC0:
 442 0000 44432D4D 		.ascii	"DC-Motor-PWM application started\015\012\000"
 442      6F746F72 
 442      2D50574D 
 442      20617070 
 442      6C696361 
 443 0023 00       		.space	1
 444              	.LC1:
 445 0024 303A2053 		.ascii	"0: Stop\015\012\000"
 445      746F700D 
 445      0A00
 446 002e 0000     		.space	2
 447              	.LC2:
 448 0030 773A2044 		.ascii	"w: Drive forwards\015\012\000"
 448      72697665 
 448      20666F72 
 448      77617264 
 448      730D0A00 
 449              	.LC3:
 450 0044 733A2044 		.ascii	"s: Drive backwards\015\012\000"
 450      72697665 
 450      20626163 
 450      6B776172 
 450      64730D0A 
 451 0059 000000   		.space	3
ARM GAS  C:\Users\Jesper\AppData\Local\Temp\ccFuwpPm.s 			page 12


 452              	.LC4:
 453 005c 613A2044 		.ascii	"a: Drive left\015\012\000"
 453      72697665 
 453      206C6566 
 453      740D0A00 
 454              	.LC5:
 455 006c 733A2044 		.ascii	"s: Drive right\015\012\000"
 455      72697665 
 455      20726967 
 455      68740D0A 
 455      00
 456 007d 000000   		.space	3
 457              	.LC6:
 458 0080 313A2049 		.ascii	"1: Increase speed\015\012\000"
 458      6E637265 
 458      61736520 
 458      73706565 
 458      640D0A00 
 459              	.LC7:
 460 0094 323A2044 		.ascii	"2: Decrease speed\015\012\000"
 460      65637265 
 460      61736520 
 460      73706565 
 460      640D0A00 
 461              		.bss
 462              		.align	2
 463              		.set	.LANCHOR1,. + 0
 464              		.type	counter, %object
 465              		.size	counter, 4
 466              	counter:
 467 0000 00000000 		.space	4
 468              		.type	distance, %object
 469              		.size	distance, 4
 470              	distance:
 471 0004 00000000 		.space	4
 472              		.text
 473              	.Letext0:
 474              		.file 2 "c:\\program files (x86)\\cypress\\psoc creator\\4.2\\psoc creator\\import\\gnu\\arm\\5.4.
 475              		.file 3 "c:\\program files (x86)\\cypress\\psoc creator\\4.2\\psoc creator\\import\\gnu\\arm\\5.4.
 476              		.file 4 "Generated_Source\\PSoC5/core_cm3.h"
 477              		.file 5 "Generated_Source\\PSoC5/isr_uart_rx.h"
 478              		.file 6 "Generated_Source\\PSoC5/UART_1.h"
 479              		.file 7 "Generated_Source\\PSoC5/PWMA.h"
 480              		.file 8 "Generated_Source\\PSoC5/PWMB.h"
 481              		.file 9 "Generated_Source\\PSoC5/stby.h"
 482              		.file 10 "Generated_Source\\PSoC5/Timer_1.h"
 483              		.file 11 "Generated_Source\\PSoC5/PWM_2.h"
 484              		.file 12 "Generated_Source\\PSoC5/PWM_3.h"
 485              		.file 13 "Generated_Source\\PSoC5/PWM_4.h"
 486              		.file 14 "Generated_Source\\PSoC5/PWM_6.h"
 487              		.file 15 "Generated_Source\\PSoC5/Control_Reg_1.h"
 488              		.file 16 "Generated_Source\\PSoC5/CyLib.h"
 489              		.file 17 "Generated_Source\\PSoC5/Echo.h"
 490              		.file 18 "Sensor.h"
 491              		.file 19 "MotorDrive.h"
 492              		.file 20 "ServoArm.h"