ARM GAS  C:\Users\Jesper\AppData\Local\Temp\ccjex6zY.s 			page 1


   1              		.syntax unified
   2              		.cpu cortex-m3
   3              		.fpu softvfp
   4              		.eabi_attribute 20, 1
   5              		.eabi_attribute 21, 1
   6              		.eabi_attribute 23, 3
   7              		.eabi_attribute 24, 1
   8              		.eabi_attribute 25, 1
   9              		.eabi_attribute 26, 1
  10              		.eabi_attribute 30, 1
  11              		.eabi_attribute 34, 1
  12              		.eabi_attribute 18, 4
  13              		.thumb
  14              		.syntax unified
  15              		.file	"MotorDrive.c"
  16              		.text
  17              	.Ltext0:
  18              		.cfi_sections	.debug_frame
  19              		.section	.text.decreaseSpeed,"ax",%progbits
  20              		.align	2
  21              		.global	decreaseSpeed
  22              		.thumb
  23              		.thumb_func
  24              		.type	decreaseSpeed, %function
  25              	decreaseSpeed:
  26              	.LFB63:
  27              		.file 1 "MotorDrive.c"
   1:MotorDrive.c  **** /* ========================================
   2:MotorDrive.c  ****  *
   3:MotorDrive.c  ****  * Copyright YOUR COMPANY, THE YEAR
   4:MotorDrive.c  ****  * All Rights Reserved
   5:MotorDrive.c  ****  * UNPUBLISHED, LICENSED SOFTWARE.
   6:MotorDrive.c  ****  *
   7:MotorDrive.c  ****  * CONFIDENTIAL AND PROPRIETARY INFORMATION
   8:MotorDrive.c  ****  * WHICH IS THE PROPERTY OF your company.
   9:MotorDrive.c  ****  *
  10:MotorDrive.c  ****  * ========================================
  11:MotorDrive.c  **** */
  12:MotorDrive.c  **** 
  13:MotorDrive.c  **** #include"MotorDrive.h"
  14:MotorDrive.c  **** #include"Sensor.h"
  15:MotorDrive.c  **** #include <project.h>
  16:MotorDrive.c  **** 
  17:MotorDrive.c  **** 
  18:MotorDrive.c  **** 
  19:MotorDrive.c  **** 
  20:MotorDrive.c  **** 
  21:MotorDrive.c  **** int dutycycle = 50;
  22:MotorDrive.c  **** void decreaseSpeed()
  23:MotorDrive.c  **** {
  28              		.loc 1 23 0
  29              		.cfi_startproc
  30              		@ args = 0, pretend = 0, frame = 0
  31              		@ frame_needed = 0, uses_anonymous_args = 0
  32 0000 08B5     		push	{r3, lr}
  33              		.cfi_def_cfa_offset 8
  34              		.cfi_offset 3, -8
ARM GAS  C:\Users\Jesper\AppData\Local\Temp\ccjex6zY.s 			page 2


  35              		.cfi_offset 14, -4
  24:MotorDrive.c  ****     stby_Write(1);
  36              		.loc 1 24 0
  37 0002 0120     		movs	r0, #1
  38 0004 FFF7FEFF 		bl	stby_Write
  39              	.LVL0:
  25:MotorDrive.c  ****     UART_1_PutString("Decreasing speed\r\n");
  40              		.loc 1 25 0
  41 0008 0548     		ldr	r0, .L3
  42 000a FFF7FEFF 		bl	UART_1_PutString
  43              	.LVL1:
  26:MotorDrive.c  ****   
  27:MotorDrive.c  ****     PWMA_WriteCompare(dutycycle=dutycycle-10);
  44              		.loc 1 27 0
  45 000e 054B     		ldr	r3, .L3+4
  46 0010 1868     		ldr	r0, [r3]
  47 0012 0A38     		subs	r0, r0, #10
  48 0014 1860     		str	r0, [r3]
  49 0016 C0B2     		uxtb	r0, r0
  50 0018 FFF7FEFF 		bl	PWMA_WriteCompare
  51              	.LVL2:
  52 001c 08BD     		pop	{r3, pc}
  53              	.L4:
  54 001e 00BF     		.align	2
  55              	.L3:
  56 0020 00000000 		.word	.LC0
  57 0024 00000000 		.word	.LANCHOR0
  58              		.cfi_endproc
  59              	.LFE63:
  60              		.size	decreaseSpeed, .-decreaseSpeed
  61              		.section	.text.increaseSpeed,"ax",%progbits
  62              		.align	2
  63              		.global	increaseSpeed
  64              		.thumb
  65              		.thumb_func
  66              		.type	increaseSpeed, %function
  67              	increaseSpeed:
  68              	.LFB64:
  28:MotorDrive.c  ****    
  29:MotorDrive.c  **** }
  30:MotorDrive.c  **** 
  31:MotorDrive.c  **** void increaseSpeed()
  32:MotorDrive.c  **** {
  69              		.loc 1 32 0
  70              		.cfi_startproc
  71              		@ args = 0, pretend = 0, frame = 0
  72              		@ frame_needed = 0, uses_anonymous_args = 0
  73 0000 08B5     		push	{r3, lr}
  74              		.cfi_def_cfa_offset 8
  75              		.cfi_offset 3, -8
  76              		.cfi_offset 14, -4
  33:MotorDrive.c  ****     stby_Write(1);
  77              		.loc 1 33 0
  78 0002 0120     		movs	r0, #1
  79 0004 FFF7FEFF 		bl	stby_Write
  80              	.LVL3:
  34:MotorDrive.c  ****     UART_1_PutString("Increasing speed\r\n");
ARM GAS  C:\Users\Jesper\AppData\Local\Temp\ccjex6zY.s 			page 3


  81              		.loc 1 34 0
  82 0008 0548     		ldr	r0, .L7
  83 000a FFF7FEFF 		bl	UART_1_PutString
  84              	.LVL4:
  35:MotorDrive.c  ****     
  36:MotorDrive.c  ****     PWMA_WriteCompare(dutycycle=dutycycle+10);
  85              		.loc 1 36 0
  86 000e 054B     		ldr	r3, .L7+4
  87 0010 1868     		ldr	r0, [r3]
  88 0012 0A30     		adds	r0, r0, #10
  89 0014 1860     		str	r0, [r3]
  90 0016 C0B2     		uxtb	r0, r0
  91 0018 FFF7FEFF 		bl	PWMA_WriteCompare
  92              	.LVL5:
  93 001c 08BD     		pop	{r3, pc}
  94              	.L8:
  95 001e 00BF     		.align	2
  96              	.L7:
  97 0020 14000000 		.word	.LC1
  98 0024 00000000 		.word	.LANCHOR0
  99              		.cfi_endproc
 100              	.LFE64:
 101              		.size	increaseSpeed, .-increaseSpeed
 102              		.section	.text.driveForwards,"ax",%progbits
 103              		.align	2
 104              		.global	driveForwards
 105              		.thumb
 106              		.thumb_func
 107              		.type	driveForwards, %function
 108              	driveForwards:
 109              	.LFB65:
  37:MotorDrive.c  ****    
  38:MotorDrive.c  **** }
  39:MotorDrive.c  **** 
  40:MotorDrive.c  **** void driveForwards()
  41:MotorDrive.c  **** {
 110              		.loc 1 41 0
 111              		.cfi_startproc
 112              		@ args = 0, pretend = 0, frame = 0
 113              		@ frame_needed = 0, uses_anonymous_args = 0
 114 0000 10B5     		push	{r4, lr}
 115              		.cfi_def_cfa_offset 8
 116              		.cfi_offset 4, -8
 117              		.cfi_offset 14, -4
  42:MotorDrive.c  ****      
  43:MotorDrive.c  ****     stby_Write(1);
 118              		.loc 1 43 0
 119 0002 0120     		movs	r0, #1
 120 0004 FFF7FEFF 		bl	stby_Write
 121              	.LVL6:
  44:MotorDrive.c  ****     UART_1_PutString("Set direction: forwards\r\n");
 122              		.loc 1 44 0
 123 0008 0B48     		ldr	r0, .L11
 124 000a FFF7FEFF 		bl	UART_1_PutString
 125              	.LVL7:
  45:MotorDrive.c  ****     
  46:MotorDrive.c  ****     PWMA_WriteCompare(dutycycle);
ARM GAS  C:\Users\Jesper\AppData\Local\Temp\ccjex6zY.s 			page 4


 126              		.loc 1 46 0
 127 000e 0B4C     		ldr	r4, .L11+4
 128 0010 2078     		ldrb	r0, [r4]	@ zero_extendqisi2
 129 0012 FFF7FEFF 		bl	PWMA_WriteCompare
 130              	.LVL8:
  47:MotorDrive.c  ****     Ain1_Write(1);
 131              		.loc 1 47 0
 132 0016 0120     		movs	r0, #1
 133 0018 FFF7FEFF 		bl	Ain1_Write
 134              	.LVL9:
  48:MotorDrive.c  ****     Ain2_Write(0);
 135              		.loc 1 48 0
 136 001c 0020     		movs	r0, #0
 137 001e FFF7FEFF 		bl	Ain2_Write
 138              	.LVL10:
  49:MotorDrive.c  ****     
  50:MotorDrive.c  ****     PWMB_WriteCompare(dutycycle);
 139              		.loc 1 50 0
 140 0022 2078     		ldrb	r0, [r4]	@ zero_extendqisi2
 141 0024 FFF7FEFF 		bl	PWMB_WriteCompare
 142              	.LVL11:
  51:MotorDrive.c  ****     Bin1_Write(1);
 143              		.loc 1 51 0
 144 0028 0120     		movs	r0, #1
 145 002a FFF7FEFF 		bl	Bin1_Write
 146              	.LVL12:
  52:MotorDrive.c  ****     Bin2_Write(0);
 147              		.loc 1 52 0
 148 002e 0020     		movs	r0, #0
 149 0030 FFF7FEFF 		bl	Bin2_Write
 150              	.LVL13:
 151 0034 10BD     		pop	{r4, pc}
 152              	.L12:
 153 0036 00BF     		.align	2
 154              	.L11:
 155 0038 28000000 		.word	.LC2
 156 003c 00000000 		.word	.LANCHOR0
 157              		.cfi_endproc
 158              	.LFE65:
 159              		.size	driveForwards, .-driveForwards
 160              		.section	.text.driveBackwards,"ax",%progbits
 161              		.align	2
 162              		.global	driveBackwards
 163              		.thumb
 164              		.thumb_func
 165              		.type	driveBackwards, %function
 166              	driveBackwards:
 167              	.LFB66:
  53:MotorDrive.c  ****     
  54:MotorDrive.c  **** }
  55:MotorDrive.c  **** 
  56:MotorDrive.c  **** void driveBackwards()
  57:MotorDrive.c  **** {
 168              		.loc 1 57 0
 169              		.cfi_startproc
 170              		@ args = 0, pretend = 0, frame = 0
 171              		@ frame_needed = 0, uses_anonymous_args = 0
ARM GAS  C:\Users\Jesper\AppData\Local\Temp\ccjex6zY.s 			page 5


 172 0000 10B5     		push	{r4, lr}
 173              		.cfi_def_cfa_offset 8
 174              		.cfi_offset 4, -8
 175              		.cfi_offset 14, -4
  58:MotorDrive.c  ****     stby_Write(1);
 176              		.loc 1 58 0
 177 0002 0120     		movs	r0, #1
 178 0004 FFF7FEFF 		bl	stby_Write
 179              	.LVL14:
  59:MotorDrive.c  ****     UART_1_PutString("Set direction: backwards\r\n");
 180              		.loc 1 59 0
 181 0008 0B48     		ldr	r0, .L15
 182 000a FFF7FEFF 		bl	UART_1_PutString
 183              	.LVL15:
  60:MotorDrive.c  ****     
  61:MotorDrive.c  ****     PWMA_WriteCompare(dutycycle);
 184              		.loc 1 61 0
 185 000e 0B4C     		ldr	r4, .L15+4
 186 0010 2078     		ldrb	r0, [r4]	@ zero_extendqisi2
 187 0012 FFF7FEFF 		bl	PWMA_WriteCompare
 188              	.LVL16:
  62:MotorDrive.c  ****     Ain1_Write(0);
 189              		.loc 1 62 0
 190 0016 0020     		movs	r0, #0
 191 0018 FFF7FEFF 		bl	Ain1_Write
 192              	.LVL17:
  63:MotorDrive.c  ****     Ain2_Write(1);
 193              		.loc 1 63 0
 194 001c 0120     		movs	r0, #1
 195 001e FFF7FEFF 		bl	Ain2_Write
 196              	.LVL18:
  64:MotorDrive.c  ****     
  65:MotorDrive.c  ****     PWMB_WriteCompare(dutycycle);
 197              		.loc 1 65 0
 198 0022 2078     		ldrb	r0, [r4]	@ zero_extendqisi2
 199 0024 FFF7FEFF 		bl	PWMB_WriteCompare
 200              	.LVL19:
  66:MotorDrive.c  ****     Bin1_Write(0);
 201              		.loc 1 66 0
 202 0028 0020     		movs	r0, #0
 203 002a FFF7FEFF 		bl	Bin1_Write
 204              	.LVL20:
  67:MotorDrive.c  ****     Bin2_Write(1);
 205              		.loc 1 67 0
 206 002e 0120     		movs	r0, #1
 207 0030 FFF7FEFF 		bl	Bin2_Write
 208              	.LVL21:
 209 0034 10BD     		pop	{r4, pc}
 210              	.L16:
 211 0036 00BF     		.align	2
 212              	.L15:
 213 0038 44000000 		.word	.LC3
 214 003c 00000000 		.word	.LANCHOR0
 215              		.cfi_endproc
 216              	.LFE66:
 217              		.size	driveBackwards, .-driveBackwards
 218              		.section	.text.driveLeft,"ax",%progbits
ARM GAS  C:\Users\Jesper\AppData\Local\Temp\ccjex6zY.s 			page 6


 219              		.align	2
 220              		.global	driveLeft
 221              		.thumb
 222              		.thumb_func
 223              		.type	driveLeft, %function
 224              	driveLeft:
 225              	.LFB67:
  68:MotorDrive.c  ****     
  69:MotorDrive.c  ****    
  70:MotorDrive.c  **** }
  71:MotorDrive.c  **** void driveLeft()
  72:MotorDrive.c  **** {
 226              		.loc 1 72 0
 227              		.cfi_startproc
 228              		@ args = 0, pretend = 0, frame = 0
 229              		@ frame_needed = 0, uses_anonymous_args = 0
 230 0000 10B5     		push	{r4, lr}
 231              		.cfi_def_cfa_offset 8
 232              		.cfi_offset 4, -8
 233              		.cfi_offset 14, -4
  73:MotorDrive.c  ****     stby_Write(1);
 234              		.loc 1 73 0
 235 0002 0120     		movs	r0, #1
 236 0004 FFF7FEFF 		bl	stby_Write
 237              	.LVL22:
  74:MotorDrive.c  ****     UART_1_PutString("Set direction: Left\r\n");
 238              		.loc 1 74 0
 239 0008 0B48     		ldr	r0, .L19
 240 000a FFF7FEFF 		bl	UART_1_PutString
 241              	.LVL23:
  75:MotorDrive.c  ****     
  76:MotorDrive.c  ****     PWMA_WriteCompare(dutycycle);
 242              		.loc 1 76 0
 243 000e 0B4C     		ldr	r4, .L19+4
 244 0010 2078     		ldrb	r0, [r4]	@ zero_extendqisi2
 245 0012 FFF7FEFF 		bl	PWMA_WriteCompare
 246              	.LVL24:
  77:MotorDrive.c  ****     Ain1_Write(1);
 247              		.loc 1 77 0
 248 0016 0120     		movs	r0, #1
 249 0018 FFF7FEFF 		bl	Ain1_Write
 250              	.LVL25:
  78:MotorDrive.c  ****     Ain2_Write(0);
 251              		.loc 1 78 0
 252 001c 0020     		movs	r0, #0
 253 001e FFF7FEFF 		bl	Ain2_Write
 254              	.LVL26:
  79:MotorDrive.c  ****     
  80:MotorDrive.c  ****     PWMB_WriteCompare(dutycycle);
 255              		.loc 1 80 0
 256 0022 2078     		ldrb	r0, [r4]	@ zero_extendqisi2
 257 0024 FFF7FEFF 		bl	PWMB_WriteCompare
 258              	.LVL27:
  81:MotorDrive.c  ****     Bin1_Write(0);
 259              		.loc 1 81 0
 260 0028 0020     		movs	r0, #0
 261 002a FFF7FEFF 		bl	Bin1_Write
ARM GAS  C:\Users\Jesper\AppData\Local\Temp\ccjex6zY.s 			page 7


 262              	.LVL28:
  82:MotorDrive.c  ****     Bin2_Write(1);
 263              		.loc 1 82 0
 264 002e 0120     		movs	r0, #1
 265 0030 FFF7FEFF 		bl	Bin2_Write
 266              	.LVL29:
 267 0034 10BD     		pop	{r4, pc}
 268              	.L20:
 269 0036 00BF     		.align	2
 270              	.L19:
 271 0038 60000000 		.word	.LC4
 272 003c 00000000 		.word	.LANCHOR0
 273              		.cfi_endproc
 274              	.LFE67:
 275              		.size	driveLeft, .-driveLeft
 276              		.section	.text.driveRight,"ax",%progbits
 277              		.align	2
 278              		.global	driveRight
 279              		.thumb
 280              		.thumb_func
 281              		.type	driveRight, %function
 282              	driveRight:
 283              	.LFB68:
  83:MotorDrive.c  ****     
  84:MotorDrive.c  **** }
  85:MotorDrive.c  **** void driveRight()
  86:MotorDrive.c  **** {
 284              		.loc 1 86 0
 285              		.cfi_startproc
 286              		@ args = 0, pretend = 0, frame = 0
 287              		@ frame_needed = 0, uses_anonymous_args = 0
 288 0000 10B5     		push	{r4, lr}
 289              		.cfi_def_cfa_offset 8
 290              		.cfi_offset 4, -8
 291              		.cfi_offset 14, -4
  87:MotorDrive.c  ****     stby_Write(1);
 292              		.loc 1 87 0
 293 0002 0120     		movs	r0, #1
 294 0004 FFF7FEFF 		bl	stby_Write
 295              	.LVL30:
  88:MotorDrive.c  ****     UART_1_PutString("Set direction: Right\r\n");
 296              		.loc 1 88 0
 297 0008 0B48     		ldr	r0, .L23
 298 000a FFF7FEFF 		bl	UART_1_PutString
 299              	.LVL31:
  89:MotorDrive.c  ****     
  90:MotorDrive.c  ****     PWMA_WriteCompare(dutycycle);
 300              		.loc 1 90 0
 301 000e 0B4C     		ldr	r4, .L23+4
 302 0010 2078     		ldrb	r0, [r4]	@ zero_extendqisi2
 303 0012 FFF7FEFF 		bl	PWMA_WriteCompare
 304              	.LVL32:
  91:MotorDrive.c  ****     Ain1_Write(0);
 305              		.loc 1 91 0
 306 0016 0020     		movs	r0, #0
 307 0018 FFF7FEFF 		bl	Ain1_Write
 308              	.LVL33:
ARM GAS  C:\Users\Jesper\AppData\Local\Temp\ccjex6zY.s 			page 8


  92:MotorDrive.c  ****     Ain2_Write(1);
 309              		.loc 1 92 0
 310 001c 0120     		movs	r0, #1
 311 001e FFF7FEFF 		bl	Ain2_Write
 312              	.LVL34:
  93:MotorDrive.c  ****     
  94:MotorDrive.c  ****     PWMB_WriteCompare(dutycycle);
 313              		.loc 1 94 0
 314 0022 2078     		ldrb	r0, [r4]	@ zero_extendqisi2
 315 0024 FFF7FEFF 		bl	PWMB_WriteCompare
 316              	.LVL35:
  95:MotorDrive.c  ****     Bin1_Write(1);
 317              		.loc 1 95 0
 318 0028 0120     		movs	r0, #1
 319 002a FFF7FEFF 		bl	Bin1_Write
 320              	.LVL36:
  96:MotorDrive.c  ****     Bin2_Write(0);
 321              		.loc 1 96 0
 322 002e 0020     		movs	r0, #0
 323 0030 FFF7FEFF 		bl	Bin2_Write
 324              	.LVL37:
 325 0034 10BD     		pop	{r4, pc}
 326              	.L24:
 327 0036 00BF     		.align	2
 328              	.L23:
 329 0038 78000000 		.word	.LC5
 330 003c 00000000 		.word	.LANCHOR0
 331              		.cfi_endproc
 332              	.LFE68:
 333              		.size	driveRight, .-driveRight
 334              		.section	.text.stop,"ax",%progbits
 335              		.align	2
 336              		.global	stop
 337              		.thumb
 338              		.thumb_func
 339              		.type	stop, %function
 340              	stop:
 341              	.LFB69:
  97:MotorDrive.c  ****     
  98:MotorDrive.c  **** }
  99:MotorDrive.c  **** 
 100:MotorDrive.c  **** void stop()
 101:MotorDrive.c  **** {
 342              		.loc 1 101 0
 343              		.cfi_startproc
 344              		@ args = 0, pretend = 0, frame = 0
 345              		@ frame_needed = 0, uses_anonymous_args = 0
 346 0000 08B5     		push	{r3, lr}
 347              		.cfi_def_cfa_offset 8
 348              		.cfi_offset 3, -8
 349              		.cfi_offset 14, -4
 102:MotorDrive.c  ****     stby_Write(0);
 350              		.loc 1 102 0
 351 0002 0020     		movs	r0, #0
 352 0004 FFF7FEFF 		bl	stby_Write
 353              	.LVL38:
 103:MotorDrive.c  ****     UART_1_PutString("Stop\r\n");
ARM GAS  C:\Users\Jesper\AppData\Local\Temp\ccjex6zY.s 			page 9


 354              		.loc 1 103 0
 355 0008 0448     		ldr	r0, .L27
 356 000a FFF7FEFF 		bl	UART_1_PutString
 357              	.LVL39:
 104:MotorDrive.c  ****     
 105:MotorDrive.c  ****     PWMA_WriteCompare(0);
 358              		.loc 1 105 0
 359 000e 0020     		movs	r0, #0
 360 0010 FFF7FEFF 		bl	PWMA_WriteCompare
 361              	.LVL40:
 106:MotorDrive.c  ****     PWMB_WriteCompare(0);   
 362              		.loc 1 106 0
 363 0014 0020     		movs	r0, #0
 364 0016 FFF7FEFF 		bl	PWMB_WriteCompare
 365              	.LVL41:
 366 001a 08BD     		pop	{r3, pc}
 367              	.L28:
 368              		.align	2
 369              	.L27:
 370 001c 90000000 		.word	.LC6
 371              		.cfi_endproc
 372              	.LFE69:
 373              		.size	stop, .-stop
 374              		.global	dutycycle
 375              		.data
 376              		.align	2
 377              		.set	.LANCHOR0,. + 0
 378              		.type	dutycycle, %object
 379              		.size	dutycycle, 4
 380              	dutycycle:
 381 0000 32000000 		.word	50
 382              		.section	.rodata.str1.4,"aMS",%progbits,1
 383              		.align	2
 384              	.LC0:
 385 0000 44656372 		.ascii	"Decreasing speed\015\012\000"
 385      65617369 
 385      6E672073 
 385      70656564 
 385      0D0A00
 386 0013 00       		.space	1
 387              	.LC1:
 388 0014 496E6372 		.ascii	"Increasing speed\015\012\000"
 388      65617369 
 388      6E672073 
 388      70656564 
 388      0D0A00
 389 0027 00       		.space	1
 390              	.LC2:
 391 0028 53657420 		.ascii	"Set direction: forwards\015\012\000"
 391      64697265 
 391      6374696F 
 391      6E3A2066 
 391      6F727761 
 392 0042 0000     		.space	2
 393              	.LC3:
 394 0044 53657420 		.ascii	"Set direction: backwards\015\012\000"
 394      64697265 
ARM GAS  C:\Users\Jesper\AppData\Local\Temp\ccjex6zY.s 			page 10


 394      6374696F 
 394      6E3A2062 
 394      61636B77 
 395 005f 00       		.space	1
 396              	.LC4:
 397 0060 53657420 		.ascii	"Set direction: Left\015\012\000"
 397      64697265 
 397      6374696F 
 397      6E3A204C 
 397      6566740D 
 398 0076 0000     		.space	2
 399              	.LC5:
 400 0078 53657420 		.ascii	"Set direction: Right\015\012\000"
 400      64697265 
 400      6374696F 
 400      6E3A2052 
 400      69676874 
 401 008f 00       		.space	1
 402              	.LC6:
 403 0090 53746F70 		.ascii	"Stop\015\012\000"
 403      0D0A00
 404              		.text
 405              	.Letext0:
 406              		.file 2 "c:\\program files (x86)\\cypress\\psoc creator\\4.2\\psoc creator\\import\\gnu\\arm\\5.4.
 407              		.file 3 "c:\\program files (x86)\\cypress\\psoc creator\\4.2\\psoc creator\\import\\gnu\\arm\\5.4.
 408              		.file 4 "Generated_Source\\PSoC5/core_cm3.h"
 409              		.file 5 "Generated_Source\\PSoC5/stby.h"
 410              		.file 6 "Generated_Source\\PSoC5/UART_1.h"
 411              		.file 7 "Generated_Source\\PSoC5/PWMA.h"
 412              		.file 8 "Generated_Source\\PSoC5/Ain1.h"
 413              		.file 9 "Generated_Source\\PSoC5/Ain2.h"
 414              		.file 10 "Generated_Source\\PSoC5/PWMB.h"
 415              		.file 11 "Generated_Source\\PSoC5/Bin1.h"
 416              		.file 12 "Generated_Source\\PSoC5/Bin2.h"