ARM GAS  C:\Users\Jesper\AppData\Local\Temp\ccglqBwU.s 			page 1


   1              		.syntax unified
   2              		.cpu cortex-m3
   3              		.fpu softvfp
   4              		.eabi_attribute 20, 1
   5              		.eabi_attribute 21, 1
   6              		.eabi_attribute 23, 3
   7              		.eabi_attribute 24, 1
   8              		.eabi_attribute 25, 1
   9              		.eabi_attribute 26, 1
  10              		.eabi_attribute 30, 1
  11              		.eabi_attribute 34, 1
  12              		.eabi_attribute 18, 4
  13              		.thumb
  14              		.syntax unified
  15              		.file	"ServoArm.c"
  16              		.text
  17              	.Ltext0:
  18              		.cfi_sections	.debug_frame
  19              		.section	.text.LOFT,"ax",%progbits
  20              		.align	2
  21              		.global	LOFT
  22              		.thumb
  23              		.thumb_func
  24              		.type	LOFT, %function
  25              	LOFT:
  26              	.LFB63:
  27              		.file 1 "ServoArm.c"
   1:ServoArm.c    **** /* ========================================
   2:ServoArm.c    ****  *
   3:ServoArm.c    ****  * Copyright YOUR COMPANY, THE YEAR
   4:ServoArm.c    ****  * All Rights Reserved
   5:ServoArm.c    ****  * UNPUBLISHED, LICENSED SOFTWARE.
   6:ServoArm.c    ****  *
   7:ServoArm.c    ****  * CONFIDENTIAL AND PROPRIETARY INFORMATION
   8:ServoArm.c    ****  * WHICH IS THE PROPERTY OF your company.
   9:ServoArm.c    ****  *
  10:ServoArm.c    ****  * ========================================
  11:ServoArm.c    **** */
  12:ServoArm.c    **** 
  13:ServoArm.c    **** #include"ServoArm.h"
  14:ServoArm.c    **** #include <project.h>
  15:ServoArm.c    **** #include "Sensor.h"
  16:ServoArm.c    **** 
  17:ServoArm.c    **** 
  18:ServoArm.c    **** 
  19:ServoArm.c    **** void LOFT()
  20:ServoArm.c    **** {
  28              		.loc 1 20 0
  29              		.cfi_startproc
  30              		@ args = 0, pretend = 0, frame = 0
  31              		@ frame_needed = 0, uses_anonymous_args = 0
  32 0000 10B5     		push	{r4, lr}
  33              		.cfi_def_cfa_offset 8
  34              		.cfi_offset 4, -8
  35              		.cfi_offset 14, -4
  21:ServoArm.c    **** 
  22:ServoArm.c    ****     UART_1_PutString("LOEFT AF OBJEKT\r\n\n");
ARM GAS  C:\Users\Jesper\AppData\Local\Temp\ccglqBwU.s 			page 2


  36              		.loc 1 22 0
  37 0002 2748     		ldr	r0, .L13
  38 0004 FFF7FEFF 		bl	UART_1_PutString
  39              	.LVL0:
  40              	.LBB2:
  23:ServoArm.c    ****     
  24:ServoArm.c    ****     // Justere gribe arm mod objekt
  25:ServoArm.c    ****         for (int control4=30; control4 <= 105; control4= control4 + 1 ) 
  41              		.loc 1 25 0
  42 0008 1E24     		movs	r4, #30
  43 000a 06E0     		b	.L2
  44              	.LVL1:
  45              	.L3:
  26:ServoArm.c    ****             {
  27:ServoArm.c    ****             PWM_4_WriteCompare(control4);
  46              		.loc 1 27 0 discriminator 3
  47 000c A0B2     		uxth	r0, r4
  48 000e FFF7FEFF 		bl	PWM_4_WriteCompare
  49              	.LVL2:
  28:ServoArm.c    ****             CyDelay(50);    
  50              		.loc 1 28 0 discriminator 3
  51 0012 3220     		movs	r0, #50
  52 0014 FFF7FEFF 		bl	CyDelay
  53              	.LVL3:
  25:ServoArm.c    ****             {
  54              		.loc 1 25 0 discriminator 3
  55 0018 0134     		adds	r4, r4, #1
  56              	.LVL4:
  57              	.L2:
  25:ServoArm.c    ****             {
  58              		.loc 1 25 0 is_stmt 0 discriminator 1
  59 001a 692C     		cmp	r4, #105
  60 001c F6DD     		ble	.L3
  61 001e 4B24     		movs	r4, #75
  62              	.LVL5:
  63 0020 06E0     		b	.L4
  64              	.LVL6:
  65              	.L5:
  66              	.LBE2:
  67              	.LBB3:
  29:ServoArm.c    ****             }
  30:ServoArm.c    ****  
  31:ServoArm.c    ****          for (int control2=75; control2 >= 50; control2= control2 - 1 ) 
  32:ServoArm.c    ****             {
  33:ServoArm.c    ****             PWM_2_WriteCompare(control2);
  68              		.loc 1 33 0 is_stmt 1 discriminator 3
  69 0022 A0B2     		uxth	r0, r4
  70 0024 FFF7FEFF 		bl	PWM_2_WriteCompare
  71              	.LVL7:
  34:ServoArm.c    ****             CyDelay(50);
  72              		.loc 1 34 0 discriminator 3
  73 0028 3220     		movs	r0, #50
  74 002a FFF7FEFF 		bl	CyDelay
  75              	.LVL8:
  31:ServoArm.c    ****             {
  76              		.loc 1 31 0 discriminator 3
  77 002e 013C     		subs	r4, r4, #1
ARM GAS  C:\Users\Jesper\AppData\Local\Temp\ccglqBwU.s 			page 3


  78              	.LVL9:
  79              	.L4:
  31:ServoArm.c    ****             {
  80              		.loc 1 31 0 is_stmt 0 discriminator 1
  81 0030 312C     		cmp	r4, #49
  82 0032 F6DC     		bgt	.L5
  83              	.LBE3:
  35:ServoArm.c    ****             
  36:ServoArm.c    ****             }
  37:ServoArm.c    ****         PWM_3_WriteCompare(20); 
  84              		.loc 1 37 0 is_stmt 1
  85 0034 1420     		movs	r0, #20
  86 0036 FFF7FEFF 		bl	PWM_3_WriteCompare
  87              	.LVL10:
  38:ServoArm.c    ****         CyDelay(1000);
  88              		.loc 1 38 0
  89 003a 4FF47A70 		mov	r0, #1000
  90 003e FFF7FEFF 		bl	CyDelay
  91              	.LVL11:
  39:ServoArm.c    ****               
  40:ServoArm.c    ****         PWM_6_WriteCompare(80); //Grib om objekt
  92              		.loc 1 40 0
  93 0042 5020     		movs	r0, #80
  94 0044 FFF7FEFF 		bl	PWM_6_WriteCompare
  95              	.LVL12:
  41:ServoArm.c    ****         CyDelay(500);
  96              		.loc 1 41 0
  97 0048 4FF4FA70 		mov	r0, #500
  98 004c FFF7FEFF 		bl	CyDelay
  99              	.LVL13:
 100              	.LBB4:
  42:ServoArm.c    ****    
  43:ServoArm.c    ****     // Justere gribe arm mod objekt
  44:ServoArm.c    ****        
  45:ServoArm.c    ****     // Løft af objekt til ønkset højde
  46:ServoArm.c    ****           for (int control2=50; control2 <= 65; control2= control2 + 1 ) 
 101              		.loc 1 46 0
 102 0050 3224     		movs	r4, #50
 103              	.LVL14:
 104 0052 06E0     		b	.L6
 105              	.LVL15:
 106              	.L7:
  47:ServoArm.c    ****             {
  48:ServoArm.c    ****             PWM_2_WriteCompare(control2);
 107              		.loc 1 48 0 discriminator 3
 108 0054 A0B2     		uxth	r0, r4
 109 0056 FFF7FEFF 		bl	PWM_2_WriteCompare
 110              	.LVL16:
  49:ServoArm.c    ****             CyDelay(50);
 111              		.loc 1 49 0 discriminator 3
 112 005a 3220     		movs	r0, #50
 113 005c FFF7FEFF 		bl	CyDelay
 114              	.LVL17:
  46:ServoArm.c    ****             {
 115              		.loc 1 46 0 discriminator 3
 116 0060 0134     		adds	r4, r4, #1
 117              	.LVL18:
ARM GAS  C:\Users\Jesper\AppData\Local\Temp\ccglqBwU.s 			page 4


 118              	.L6:
  46:ServoArm.c    ****             {
 119              		.loc 1 46 0 is_stmt 0 discriminator 1
 120 0062 412C     		cmp	r4, #65
 121 0064 F6DD     		ble	.L7
 122 0066 2024     		movs	r4, #32
 123              	.LVL19:
 124 0068 06E0     		b	.L8
 125              	.LVL20:
 126              	.L9:
 127              	.LBE4:
 128              	.LBB5:
  50:ServoArm.c    ****             }
  51:ServoArm.c    ****             
  52:ServoArm.c    ****            for (int control3 = 32; control3 <= 45; control3 = control3 + 1 ) 
  53:ServoArm.c    ****             {
  54:ServoArm.c    ****             PWM_3_WriteCompare(control3);
 129              		.loc 1 54 0 is_stmt 1 discriminator 3
 130 006a A0B2     		uxth	r0, r4
 131 006c FFF7FEFF 		bl	PWM_3_WriteCompare
 132              	.LVL21:
  55:ServoArm.c    ****             CyDelay(50);
 133              		.loc 1 55 0 discriminator 3
 134 0070 3220     		movs	r0, #50
 135 0072 FFF7FEFF 		bl	CyDelay
 136              	.LVL22:
  52:ServoArm.c    ****             {
 137              		.loc 1 52 0 discriminator 3
 138 0076 0134     		adds	r4, r4, #1
 139              	.LVL23:
 140              	.L8:
  52:ServoArm.c    ****             {
 141              		.loc 1 52 0 is_stmt 0 discriminator 1
 142 0078 2D2C     		cmp	r4, #45
 143 007a F6DD     		ble	.L9
 144 007c 6924     		movs	r4, #105
 145              	.LVL24:
 146 007e 06E0     		b	.L10
 147              	.LVL25:
 148              	.L11:
 149              	.LBE5:
 150              	.LBB6:
  56:ServoArm.c    ****             }
  57:ServoArm.c    ****             
  58:ServoArm.c    ****             for (int control4=105; control4 >= 90; control4= control4 - 1 ) 
  59:ServoArm.c    ****             {
  60:ServoArm.c    ****             PWM_4_WriteCompare(control4);
 151              		.loc 1 60 0 is_stmt 1 discriminator 3
 152 0080 A0B2     		uxth	r0, r4
 153 0082 FFF7FEFF 		bl	PWM_4_WriteCompare
 154              	.LVL26:
  61:ServoArm.c    ****             CyDelay(50);    
 155              		.loc 1 61 0 discriminator 3
 156 0086 3220     		movs	r0, #50
 157 0088 FFF7FEFF 		bl	CyDelay
 158              	.LVL27:
  58:ServoArm.c    ****             {
ARM GAS  C:\Users\Jesper\AppData\Local\Temp\ccglqBwU.s 			page 5


 159              		.loc 1 58 0 discriminator 3
 160 008c 013C     		subs	r4, r4, #1
 161              	.LVL28:
 162              	.L10:
  58:ServoArm.c    ****             {
 163              		.loc 1 58 0 is_stmt 0 discriminator 1
 164 008e 592C     		cmp	r4, #89
 165 0090 F6DC     		bgt	.L11
 166              	.LBE6:
  62:ServoArm.c    ****             }
  63:ServoArm.c    ****         PWM_6_WriteCompare(80);
 167              		.loc 1 63 0 is_stmt 1
 168 0092 5020     		movs	r0, #80
 169 0094 FFF7FEFF 		bl	PWM_6_WriteCompare
 170              	.LVL29:
  64:ServoArm.c    ****         UART_1_PutString("OBJEKT LOEFTET\r\n");
 171              		.loc 1 64 0
 172 0098 0248     		ldr	r0, .L13+4
 173 009a FFF7FEFF 		bl	UART_1_PutString
 174              	.LVL30:
 175 009e 10BD     		pop	{r4, pc}
 176              	.LVL31:
 177              	.L14:
 178              		.align	2
 179              	.L13:
 180 00a0 00000000 		.word	.LC0
 181 00a4 14000000 		.word	.LC1
 182              		.cfi_endproc
 183              	.LFE63:
 184              		.size	LOFT, .-LOFT
 185              		.section	.text.SANK,"ax",%progbits
 186              		.align	2
 187              		.global	SANK
 188              		.thumb
 189              		.thumb_func
 190              		.type	SANK, %function
 191              	SANK:
 192              	.LFB64:
  65:ServoArm.c    **** 
  66:ServoArm.c    **** }
  67:ServoArm.c    **** 
  68:ServoArm.c    **** void SANK()
  69:ServoArm.c    **** {
 193              		.loc 1 69 0
 194              		.cfi_startproc
 195              		@ args = 0, pretend = 0, frame = 0
 196              		@ frame_needed = 0, uses_anonymous_args = 0
 197 0000 10B5     		push	{r4, lr}
 198              		.cfi_def_cfa_offset 8
 199              		.cfi_offset 4, -8
 200              		.cfi_offset 14, -4
  70:ServoArm.c    ****         UART_1_PutString("SAENK AF OBJEKT\r\n\n");
 201              		.loc 1 70 0
 202 0002 2348     		ldr	r0, .L23
 203 0004 FFF7FEFF 		bl	UART_1_PutString
 204              	.LVL32:
 205              	.LBB7:
ARM GAS  C:\Users\Jesper\AppData\Local\Temp\ccglqBwU.s 			page 6


  71:ServoArm.c    ****         
  72:ServoArm.c    ****         for (int control2=65; control2 >= 56; control2= control2 - 1 ) 
 206              		.loc 1 72 0
 207 0008 4124     		movs	r4, #65
 208 000a 06E0     		b	.L16
 209              	.LVL33:
 210              	.L17:
  73:ServoArm.c    ****             {
  74:ServoArm.c    ****             PWM_2_WriteCompare(control2);
 211              		.loc 1 74 0 discriminator 3
 212 000c A0B2     		uxth	r0, r4
 213 000e FFF7FEFF 		bl	PWM_2_WriteCompare
 214              	.LVL34:
  75:ServoArm.c    ****             CyDelay(100);
 215              		.loc 1 75 0 discriminator 3
 216 0012 6420     		movs	r0, #100
 217 0014 FFF7FEFF 		bl	CyDelay
 218              	.LVL35:
  72:ServoArm.c    ****             {
 219              		.loc 1 72 0 discriminator 3
 220 0018 013C     		subs	r4, r4, #1
 221              	.LVL36:
 222              	.L16:
  72:ServoArm.c    ****             {
 223              		.loc 1 72 0 is_stmt 0 discriminator 1
 224 001a 372C     		cmp	r4, #55
 225 001c F6DC     		bgt	.L17
 226              	.LBE7:
  76:ServoArm.c    ****             }
  77:ServoArm.c    ****             PWM_4_WriteCompare(100);
 227              		.loc 1 77 0 is_stmt 1
 228 001e 6420     		movs	r0, #100
 229 0020 FFF7FEFF 		bl	PWM_4_WriteCompare
 230              	.LVL37:
 231              	.LBB8:
  78:ServoArm.c    ****         for (int control3=45; control3 >= 30; control3= control3 - 1 ) 
 232              		.loc 1 78 0
 233 0024 2D24     		movs	r4, #45
 234              	.LVL38:
 235 0026 06E0     		b	.L18
 236              	.LVL39:
 237              	.L19:
  79:ServoArm.c    ****             {
  80:ServoArm.c    ****             PWM_3_WriteCompare(control3);
 238              		.loc 1 80 0 discriminator 3
 239 0028 A0B2     		uxth	r0, r4
 240 002a FFF7FEFF 		bl	PWM_3_WriteCompare
 241              	.LVL40:
  81:ServoArm.c    ****             CyDelay(100);
 242              		.loc 1 81 0 discriminator 3
 243 002e 6420     		movs	r0, #100
 244 0030 FFF7FEFF 		bl	CyDelay
 245              	.LVL41:
  78:ServoArm.c    ****         for (int control3=45; control3 >= 30; control3= control3 - 1 ) 
 246              		.loc 1 78 0 discriminator 3
 247 0034 013C     		subs	r4, r4, #1
 248              	.LVL42:
ARM GAS  C:\Users\Jesper\AppData\Local\Temp\ccglqBwU.s 			page 7


 249              	.L18:
  78:ServoArm.c    ****         for (int control3=45; control3 >= 30; control3= control3 - 1 ) 
 250              		.loc 1 78 0 is_stmt 0 discriminator 1
 251 0036 1D2C     		cmp	r4, #29
 252 0038 F6DC     		bgt	.L19
 253              	.LBE8:
  82:ServoArm.c    ****             }
  83:ServoArm.c    ****        
  84:ServoArm.c    ****         
  85:ServoArm.c    ****         PWM_6_WriteCompare(80);
 254              		.loc 1 85 0 is_stmt 1
 255 003a 5020     		movs	r0, #80
 256 003c FFF7FEFF 		bl	PWM_6_WriteCompare
 257              	.LVL43:
  86:ServoArm.c    ****         CyDelay(1000);
 258              		.loc 1 86 0
 259 0040 4FF47A70 		mov	r0, #1000
 260 0044 FFF7FEFF 		bl	CyDelay
 261              	.LVL44:
  87:ServoArm.c    ****         PWM_6_WriteCompare(50);
 262              		.loc 1 87 0
 263 0048 3220     		movs	r0, #50
 264 004a FFF7FEFF 		bl	PWM_6_WriteCompare
 265              	.LVL45:
 266              	.LBB9:
  88:ServoArm.c    ****        
  89:ServoArm.c    ****        // Justere gribe arm mod objekt
  90:ServoArm.c    ****         
  91:ServoArm.c    ****          for (int control2=56; control2 <= 78; control2= control2 + 1 ) 
 267              		.loc 1 91 0
 268 004e 3824     		movs	r4, #56
 269              	.LVL46:
 270 0050 06E0     		b	.L20
 271              	.LVL47:
 272              	.L21:
  92:ServoArm.c    ****             {
  93:ServoArm.c    ****             PWM_2_WriteCompare(control2);
 273              		.loc 1 93 0 discriminator 3
 274 0052 A0B2     		uxth	r0, r4
 275 0054 FFF7FEFF 		bl	PWM_2_WriteCompare
 276              	.LVL48:
  94:ServoArm.c    ****             CyDelay(100);
 277              		.loc 1 94 0 discriminator 3
 278 0058 6420     		movs	r0, #100
 279 005a FFF7FEFF 		bl	CyDelay
 280              	.LVL49:
  91:ServoArm.c    ****             {
 281              		.loc 1 91 0 discriminator 3
 282 005e 0134     		adds	r4, r4, #1
 283              	.LVL50:
 284              	.L20:
  91:ServoArm.c    ****             {
 285              		.loc 1 91 0 is_stmt 0 discriminator 1
 286 0060 4E2C     		cmp	r4, #78
 287 0062 F6DD     		ble	.L21
 288              	.LBE9:
  95:ServoArm.c    ****             }
ARM GAS  C:\Users\Jesper\AppData\Local\Temp\ccglqBwU.s 			page 8


  96:ServoArm.c    ****             
  97:ServoArm.c    ****         PWM_4_WriteCompare(30);
 289              		.loc 1 97 0 is_stmt 1
 290 0064 1E20     		movs	r0, #30
 291 0066 FFF7FEFF 		bl	PWM_4_WriteCompare
 292              	.LVL51:
  98:ServoArm.c    ****         CyDelay(500);    
 293              		.loc 1 98 0
 294 006a 4FF4FA70 		mov	r0, #500
 295 006e FFF7FEFF 		bl	CyDelay
 296              	.LVL52:
  99:ServoArm.c    ****         PWM_3_WriteCompare(32); 
 297              		.loc 1 99 0
 298 0072 2020     		movs	r0, #32
 299 0074 FFF7FEFF 		bl	PWM_3_WriteCompare
 300              	.LVL53:
 100:ServoArm.c    ****         CyDelay(1000);
 301              		.loc 1 100 0
 302 0078 4FF47A70 		mov	r0, #1000
 303 007c FFF7FEFF 		bl	CyDelay
 304              	.LVL54:
 101:ServoArm.c    ****         PWM_6_WriteCompare(50); 
 305              		.loc 1 101 0
 306 0080 3220     		movs	r0, #50
 307 0082 FFF7FEFF 		bl	PWM_6_WriteCompare
 308              	.LVL55:
 102:ServoArm.c    ****         UART_1_PutString("OBJEKT SAENKET\r\n");
 309              		.loc 1 102 0
 310 0086 0348     		ldr	r0, .L23+4
 311 0088 FFF7FEFF 		bl	UART_1_PutString
 312              	.LVL56:
 313 008c 10BD     		pop	{r4, pc}
 314              	.LVL57:
 315              	.L24:
 316 008e 00BF     		.align	2
 317              	.L23:
 318 0090 28000000 		.word	.LC2
 319 0094 3C000000 		.word	.LC3
 320              		.cfi_endproc
 321              	.LFE64:
 322              		.size	SANK, .-SANK
 323              		.section	.rodata.str1.4,"aMS",%progbits,1
 324              		.align	2
 325              	.LC0:
 326 0000 4C4F4546 		.ascii	"LOEFT AF OBJEKT\015\012\012\000"
 326      54204146 
 326      204F424A 
 326      454B540D 
 326      0A0A00
 327 0013 00       		.space	1
 328              	.LC1:
 329 0014 4F424A45 		.ascii	"OBJEKT LOEFTET\015\012\000"
 329      4B54204C 
 329      4F454654 
 329      45540D0A 
 329      00
 330 0025 000000   		.space	3
ARM GAS  C:\Users\Jesper\AppData\Local\Temp\ccglqBwU.s 			page 9


 331              	.LC2:
 332 0028 5341454E 		.ascii	"SAENK AF OBJEKT\015\012\012\000"
 332      4B204146 
 332      204F424A 
 332      454B540D 
 332      0A0A00
 333 003b 00       		.space	1
 334              	.LC3:
 335 003c 4F424A45 		.ascii	"OBJEKT SAENKET\015\012\000"
 335      4B542053 
 335      41454E4B 
 335      45540D0A 
 335      00
 336              		.text
 337              	.Letext0:
 338              		.file 2 "c:\\program files (x86)\\cypress\\psoc creator\\4.2\\psoc creator\\import\\gnu\\arm\\5.4.
 339              		.file 3 "c:\\program files (x86)\\cypress\\psoc creator\\4.2\\psoc creator\\import\\gnu\\arm\\5.4.
 340              		.file 4 "Generated_Source\\PSoC5/PWM_4.h"
 341              		.file 5 "Generated_Source\\PSoC5/CyLib.h"
 342              		.file 6 "Generated_Source\\PSoC5/PWM_2.h"
 343              		.file 7 "Generated_Source\\PSoC5/PWM_3.h"
 344              		.file 8 "Generated_Source\\PSoC5/UART_1.h"
 345              		.file 9 "Generated_Source\\PSoC5/PWM_6.h"
 346              		.file 10 "Generated_Source\\PSoC5/core_cm3.h"